

Microchip MPLAB XC8 Assembler V2.32 build 20210201212658 
                                                                                               Tue Jun 18 17:30:21 2024

Microchip MPLAB XC8 C Compiler v2.32 (Free license) build 20210201212658 Og1 
     1                           	processor	18F4550
     2                           	fnconf	rparam,??,?,0
     3                           	pagewidth 120
     4                           	opt	flic
     5                           	psect	smallconst,global,reloc=2,class=SMALLCONST,delta=1,noexec
     6                           	psect	cinit,global,reloc=2,class=CODE,delta=1
     7                           	psect	cstackCOMRAM,global,class=COMRAM,space=1,delta=1,lowdata,noexec
     8                           	psect	text0,global,reloc=2,class=CODE,delta=1
     9                           	psect	text1,global,reloc=2,class=CODE,delta=1
    10                           	psect	text2,global,reloc=2,class=CODE,delta=1,group=1
    11                           	psect	text3,global,reloc=2,class=CODE,delta=1,group=1
    12                           	psect	text4,global,reloc=2,class=CODE,delta=1,group=1
    13                           	psect	text5,global,reloc=2,class=CODE,delta=1,group=1
    14                           	psect	text6,global,reloc=2,class=CODE,delta=1
    15                           	psect	text7,global,reloc=2,class=CODE,delta=1
    16                           	psect	text8,global,reloc=2,class=CODE,delta=1
    17                           	psect	text9,global,reloc=2,class=CODE,delta=1
    18                           	psect	text10,global,reloc=2,class=CODE,delta=1
    19                           	psect	text11,global,reloc=2,class=CODE,delta=1
    20                           	psect	text12,global,reloc=2,class=CODE,delta=1
    21                           	psect	text13,global,reloc=2,class=CODE,delta=1
    22                           	psect	text14,global,reloc=2,class=CODE,delta=1
    23                           	psect	text15,global,reloc=2,class=CODE,delta=1
    24                           	psect	intsave_regs,global,class=BIGRAM,space=1,delta=1,noexec
    25                           	psect	rparam,global,class=COMRAM,space=1,delta=1,noexec
    26                           	psect	idloc,global,abs,ovrld,class=IDLOC,space=5,delta=1,noexec
    27                           	psect	config,global,abs,ovrld,class=CONFIG,space=4,delta=1,noexec
    28  0000                     
    29                           ; Version 2.32
    30                           ; Generated 02/02/2021 GMT
    31                           ; 
    32                           ; Copyright © 2021, Microchip Technology Inc. and its subsidiaries ("Microchip")
    33                           ; All rights reserved.
    34                           ; 
    35                           ; This software is developed by Microchip Technology Inc. and its subsidiaries ("Microch
      +                          ip").
    36                           ; 
    37                           ; Redistribution and use in source and binary forms, with or without modification, are
    38                           ; permitted provided that the following conditions are met:
    39                           ; 
    40                           ;     1. Redistributions of source code must retain the above copyright notice, this lis
      +                          t of
    41                           ;        conditions and the following disclaimer.
    42                           ; 
    43                           ;     2. Redistributions in binary form must reproduce the above copyright notice, this 
      +                          list
    44                           ;        of conditions and the following disclaimer in the documentation and/or other
    45                           ;        materials provided with the distribution. Publication is not required when
    46                           ;        this file is used in an embedded application.
    47                           ; 
    48                           ;     3. Microchip's name may not be used to endorse or promote products derived from th
      +                          is
    49                           ;        software without specific prior written permission.
    50                           ; 
    51                           ; THIS SOFTWARE IS PROVIDED BY MICROCHIP "AS IS" AND ANY EXPRESS OR IMPLIED WARRANTIES,
    52                           ; INCLUDING, BUT NOT LIMITED TO, THE IMPLIED WARRANTIES OF MERCHANTABILITY AND FITNESS F
      +                          OR
    53                           ; PURPOSE ARE DISCLAIMED.  IN NO EVENT SHALL MICROCHIP BE LIABLE FOR ANY DIRECT, INDIREC
      +                          T,
    54                           ; INCIDENTAL, SPECIAL, EXEMPLARY, OR CONSEQUENTIAL DAMAGES (INCLUDING BUT NOT LIMITED TO
    55                           ; PROCUREMENT OF SUBSTITUTE GOODS OR SERVICES; LOSS OF USE, DATA OR PROFITS; OR BUSINESS
    56                           ; INTERRUPTION) HOWSOEVER CAUSED AND ON ANY THEORY OF LIABILITY, WHETHER IN CONTRACT, ST
      +                          RICT
    57                           ; LIABILITY, OR TORT (INCLUDING NEGLIGENCE OR OTHERWISE) ARISING IN ANY WAY OUT OF THE U
      +                          SE OF
    58                           ; THIS SOFTWARE, EVEN IF ADVISED OF THE POSSIBILITY OF SUCH DAMAGE.
    59                           ; 
    60                           ; 
    61                           ; Code-generator required, PIC18F4550 Definitions
    62                           ; 
    63                           ; SFR Addresses
    64  0000                     _LATEbits	set	3981
    65  0000                     _TRISD	set	3989
    66  0000                     _PORTD	set	3971
    67  0000                     _PORTCbits	set	3970
    68  0000                     _ADRESL	set	4035
    69  0000                     _ADCON0bits	set	4034
    70  0000                     _ADCON2	set	4032
    71  0000                     _ADCON0	set	4034
    72  0000                     _ADCON1	set	4033
    73  0000                     _TRISEbits	set	3990
    74  0000                     _TRISBbits	set	3987
    75  0000                     _TRISCbits	set	3988
    76  0000                     _PORTDbits	set	3971
    77  0000                     _TRISDbits	set	3989
    78  0000                     _TRISAbits	set	3986
    79  0000                     _PORTBbits	set	3969
    80  0000                     _ADRESH	set	4036
    81                           
    82                           	psect	smallconst
    83  000800                     __psmallconst:
    84                           	callstack 0
    85  000800  00                 	db	0
    86  000801                     STR_3:
    87  000801  20                 	db	32
    88  000802  56                 	db	86	;'V'
    89  000803  61                 	db	97	;'a'
    90  000804  6C                 	db	108	;'l'
    91  000805  6F                 	db	111	;'o'
    92  000806  72                 	db	114	;'r'
    93  000807  20                 	db	32
    94  000808  69                 	db	105	;'i'
    95  000809  6E                 	db	110	;'n'
    96  00080A  76                 	db	118	;'v'
    97  00080B  61                 	db	97	;'a'
    98  00080C  6C                 	db	108	;'l'
    99  00080D  69                 	db	105	;'i'
   100  00080E  64                 	db	100	;'d'
   101  00080F  6F                 	db	111	;'o'
   102  000810  00                 	db	0
   103  000811                     STR_1:
   104  000811  20                 	db	32
   105  000812  74                 	db	116	;'t'
   106  000813  65                 	db	101	;'e'
   107  000814  6D                 	db	109	;'m'
   108  000815  70                 	db	112	;'p'
   109  000816  31                 	db	49	;'1'
   110  000817  3A                 	db	58	;':'
   111  000818  00                 	db	0
   112  000819                     STR_2:
   113  000819  20                 	db	32
   114  00081A  74                 	db	116	;'t'
   115  00081B  65                 	db	101	;'e'
   116  00081C  6D                 	db	109	;'m'
   117  00081D  70                 	db	112	;'p'
   118  00081E  32                 	db	50	;'2'
   119  00081F  3A                 	db	58	;':'
   120  000820  00                 	db	0
   121  000821                     STR_4:
   122  000821  20                 	db	32
   123  000822  74                 	db	116	;'t'
   124  000823  65                 	db	101	;'e'
   125  000824  6D                 	db	109	;'m'
   126  000825  70                 	db	112	;'p'
   127  000826  33                 	db	51	;'3'
   128  000827  3A                 	db	58	;':'
   129  000828  00                 	db	0
   130  000829  00                 	db	0	; dummy byte at the end
   131  0000                     
   132                           ; #config settings
   133                           
   134                           	psect	cinit
   135  001AE2                     __pcinit:
   136                           	callstack 0
   137  001AE2                     start_initialization:
   138                           	callstack 0
   139  001AE2                     __initialization:
   140                           	callstack 0
   141  001AE2                     end_of_initialization:
   142                           	callstack 0
   143  001AE2                     __end_of__initialization:
   144                           	callstack 0
   145  001AE2  0E00               	movlw	low (__Lsmallconst shr (0+16))
   146  001AE4  6EF8               	movwf	tblptru,c
   147  001AE6  0E08               	movlw	high __Lsmallconst
   148  001AE8  6EF7               	movwf	tblptrh,c
   149  001AEA  0100               	movlb	0
   150  001AEC  EF83  F006         	goto	_main	;jump to C main() function
   151                           
   152                           	psect	cstackCOMRAM
   153  000001                     __pcstackCOMRAM:
   154                           	callstack 0
   155  000001                     ??_DelayPORXLCD:
   156  000001                     ??_DelayXLCD:
   157  000001                     ?_DescobrePosicao:
   158                           	callstack 0
   159  000001                     ?___wmul:
   160                           	callstack 0
   161  000001                     ?___xxtofl:
   162                           	callstack 0
   163  000001                     SetDDRamAddr@DDaddr:
   164                           	callstack 0
   165  000001                     WriteCmdXLCD@cmd:
   166                           	callstack 0
   167  000001                     WriteDataXLCD@data:
   168                           	callstack 0
   169  000001                     DescobrePosicao@contador:
   170                           	callstack 0
   171  000001                     ___wmul@multiplier:
   172                           	callstack 0
   173  000001                     ___xxtofl@val:
   174                           	callstack 0
   175                           
   176                           ; 4 bytes @ 0x0
   177  000001                     	ds	1
   178  000002                     OpenXLCD@lcdtype:
   179                           	callstack 0
   180  000002                     putsXLCD@buffer:
   181                           	callstack 0
   182                           
   183                           ; 2 bytes @ 0x1
   184  000002                     	ds	1
   185  000003                     ?_LeTecladoMatricial:
   186                           	callstack 0
   187  000003                     LeTecladoMatricial@contador:
   188                           	callstack 0
   189  000003                     ___wmul@multiplicand:
   190                           	callstack 0
   191                           
   192                           ; 2 bytes @ 0x2
   193  000003                     	ds	1
   194  000004                     
   195                           ; 1 bytes @ 0x3
   196  000004                     	ds	1
   197  000005                     ??_LeTecladoMatricial:
   198  000005                     ??___xxtofl:
   199  000005                     ___wmul@product:
   200                           	callstack 0
   201                           
   202                           ; 2 bytes @ 0x4
   203  000005                     	ds	2
   204  000007                     LeTecladoMatricial@a:
   205                           	callstack 0
   206                           
   207                           ; 2 bytes @ 0x6
   208  000007                     	ds	2
   209  000009                     ___xxtofl@sign:
   210                           	callstack 0
   211                           
   212                           ; 1 bytes @ 0x8
   213  000009                     	ds	1
   214  00000A                     ___xxtofl@exp:
   215                           	callstack 0
   216                           
   217                           ; 1 bytes @ 0x9
   218  00000A                     	ds	1
   219  00000B                     ___xxtofl@arg:
   220                           	callstack 0
   221                           
   222                           ; 4 bytes @ 0xA
   223  00000B                     	ds	4
   224  00000F                     ?___flmul:
   225                           	callstack 0
   226  00000F                     ___flmul@b:
   227                           	callstack 0
   228                           
   229                           ; 4 bytes @ 0xE
   230  00000F                     	ds	4
   231  000013                     ___flmul@a:
   232                           	callstack 0
   233                           
   234                           ; 4 bytes @ 0x12
   235  000013                     	ds	4
   236  000017                     ??___flmul:
   237                           
   238                           ; 1 bytes @ 0x16
   239  000017                     	ds	4
   240  00001B                     ___flmul@sign:
   241                           	callstack 0
   242                           
   243                           ; 1 bytes @ 0x1A
   244  00001B                     	ds	1
   245  00001C                     ___flmul@grs:
   246                           	callstack 0
   247                           
   248                           ; 4 bytes @ 0x1B
   249  00001C                     	ds	4
   250  000020                     ___flmul@aexp:
   251                           	callstack 0
   252                           
   253                           ; 1 bytes @ 0x1F
   254  000020                     	ds	1
   255  000021                     ___flmul@bexp:
   256                           	callstack 0
   257                           
   258                           ; 1 bytes @ 0x20
   259  000021                     	ds	1
   260  000022                     ___flmul@prod:
   261                           	callstack 0
   262                           
   263                           ; 4 bytes @ 0x21
   264  000022                     	ds	4
   265  000026                     ___flmul@temp:
   266                           	callstack 0
   267                           
   268                           ; 2 bytes @ 0x25
   269  000026                     	ds	2
   270  000028                     ?___fltol:
   271                           	callstack 0
   272  000028                     ___fltol@f1:
   273                           	callstack 0
   274                           
   275                           ; 4 bytes @ 0x27
   276  000028                     	ds	4
   277  00002C                     ??___fltol:
   278                           
   279                           ; 1 bytes @ 0x2B
   280  00002C                     	ds	4
   281  000030                     ___fltol@sign1:
   282                           	callstack 0
   283                           
   284                           ; 1 bytes @ 0x2F
   285  000030                     	ds	1
   286  000031                     ___fltol@exp1:
   287                           	callstack 0
   288                           
   289                           ; 1 bytes @ 0x30
   290  000031                     	ds	1
   291  000032                     ??_main:
   292                           
   293                           ; 1 bytes @ 0x31
   294  000032                     	ds	2
   295  000034                     main@digito1:
   296                           	callstack 0
   297                           
   298                           ; 2 bytes @ 0x33
   299  000034                     	ds	2
   300  000036                     main@digito2:
   301                           	callstack 0
   302                           
   303                           ; 2 bytes @ 0x35
   304  000036                     	ds	2
   305  000038                     main@digito3:
   306                           	callstack 0
   307                           
   308                           ; 2 bytes @ 0x37
   309  000038                     	ds	2
   310  00003A                     main@Valor_conversor:
   311                           	callstack 0
   312                           
   313                           ; 2 bytes @ 0x39
   314  00003A                     	ds	2
   315  00003C                     main@temperatura1:
   316                           	callstack 0
   317                           
   318                           ; 2 bytes @ 0x3B
   319  00003C                     	ds	2
   320  00003E                     main@temperatura3:
   321                           	callstack 0
   322                           
   323                           ; 2 bytes @ 0x3D
   324  00003E                     	ds	2
   325  000040                     main@temperatura2:
   326                           	callstack 0
   327                           
   328                           ; 2 bytes @ 0x3F
   329  000040                     	ds	2
   330  000042                     main@temp:
   331                           	callstack 0
   332                           
   333                           ; 4 bytes @ 0x41
   334  000042                     	ds	4
   335                           
   336 ;;
   337 ;;Main: autosize = 0, tempsize = 2, incstack = 0, save=0
   338 ;;
   339 ;; *************** function _main *****************
   340 ;; Defined at:
   341 ;;		line 235 in file "newmain.c"
   342 ;; Parameters:    Size  Location     Type
   343 ;;		None
   344 ;; Auto vars:     Size  Location     Type
   345 ;;  temp            4   65[COMRAM] int [2]
   346 ;;  temperatura2    2   63[COMRAM] int 
   347 ;;  temperatura3    2   61[COMRAM] int 
   348 ;;  temperatura1    2   59[COMRAM] int 
   349 ;;  Valor_conver    2   57[COMRAM] unsigned int 
   350 ;;  digito3         2   55[COMRAM] int 
   351 ;;  digito2         2   53[COMRAM] int 
   352 ;;  digito1         2   51[COMRAM] int 
   353 ;; Return value:  Size  Location     Type
   354 ;;                  1    wreg      void 
   355 ;; Registers used:
   356 ;;		wreg, status,2, status,0, tblptrl, tblptrh, tblptru, prodl, prodh, cstack
   357 ;; Tracked objects:
   358 ;;		On entry : 0/0
   359 ;;		On exit  : 0/0
   360 ;;		Unchanged: 0/0
   361 ;; Data sizes:     COMRAM   BANK0   BANK1   BANK2   BANK3   BANK4   BANK5   BANK6   BANK7
   362 ;;      Params:         0       0       0       0       0       0       0       0       0
   363 ;;      Locals:        18       0       0       0       0       0       0       0       0
   364 ;;      Temps:          2       0       0       0       0       0       0       0       0
   365 ;;      Totals:        20       0       0       0       0       0       0       0       0
   366 ;;Total ram usage:       20 bytes
   367 ;; Hardware stack levels required when called: 3
   368 ;; This function calls:
   369 ;;		_LeTecladoMatricial
   370 ;;		_OpenXLCD
   371 ;;		_WriteCmdXLCD
   372 ;;		___flmul
   373 ;;		___fltol
   374 ;;		___wmul
   375 ;;		___xxtofl
   376 ;;		_putsXLCD
   377 ;; This function is called by:
   378 ;;		Startup code after reset
   379 ;; This function uses a non-reentrant model
   380 ;;
   381                           
   382                           	psect	text0
   383  000D06                     __ptext0:
   384                           	callstack 0
   385  000D06                     _main:
   386                           	callstack 28
   387  000D06                     
   388                           ;newmain.c: 239: TRISAbits.TRISA0 = 1;
   389  000D06  8092               	bsf	146,0,c	;volatile
   390  000D08                     
   391                           ;newmain.c: 240: TRISDbits.TRISD0 = 0;
   392  000D08  9095               	bcf	149,0,c	;volatile
   393  000D0A                     
   394                           ;newmain.c: 241: TRISDbits.TRISD1 = 0;
   395  000D0A  9295               	bcf	149,1,c	;volatile
   396  000D0C                     
   397                           ;newmain.c: 242: TRISDbits.TRISD2 = 0;
   398  000D0C  9495               	bcf	149,2,c	;volatile
   399  000D0E                     
   400                           ;newmain.c: 243: PORTDbits.RD0 = 0;
   401  000D0E  9083               	bcf	131,0,c	;volatile
   402  000D10                     
   403                           ;newmain.c: 244: PORTDbits.RD1 = 0;
   404  000D10  9283               	bcf	131,1,c	;volatile
   405  000D12                     
   406                           ;newmain.c: 245: PORTDbits.RD2 = 0;
   407  000D12  9483               	bcf	131,2,c	;volatile
   408  000D14                     
   409                           ;newmain.c: 246: TRISCbits.RC2 = 0;
   410  000D14  9494               	bcf	148,2,c	;volatile
   411  000D16                     
   412                           ;newmain.c: 248: TRISBbits.RB3=0;
   413  000D16  9693               	bcf	147,3,c	;volatile
   414  000D18                     
   415                           ;newmain.c: 249: TRISBbits.RB2=0;
   416  000D18  9493               	bcf	147,2,c	;volatile
   417  000D1A                     
   418                           ;newmain.c: 250: TRISBbits.RB0=0;
   419  000D1A  9093               	bcf	147,0,c	;volatile
   420  000D1C                     
   421                           ;newmain.c: 251: TRISBbits.RB1=0;
   422  000D1C  9293               	bcf	147,1,c	;volatile
   423  000D1E                     
   424                           ;newmain.c: 253: PORTBbits.RB3=1;
   425  000D1E  8681               	bsf	129,3,c	;volatile
   426  000D20                     
   427                           ;newmain.c: 254: PORTBbits.RB4=1;
   428  000D20  8881               	bsf	129,4,c	;volatile
   429  000D22                     
   430                           ;newmain.c: 256: TRISBbits.RB4=1;
   431  000D22  8893               	bsf	147,4,c	;volatile
   432  000D24                     
   433                           ;newmain.c: 257: TRISBbits.RB5=1;
   434  000D24  8A93               	bsf	147,5,c	;volatile
   435  000D26                     
   436                           ;newmain.c: 258: TRISBbits.RB6=1;
   437  000D26  8C93               	bsf	147,6,c	;volatile
   438  000D28                     
   439                           ;newmain.c: 259: TRISBbits.RB7=1;
   440  000D28  8E93               	bsf	147,7,c	;volatile
   441  000D2A                     
   442                           ;newmain.c: 261: TRISDbits.RD0=0;
   443  000D2A  9095               	bcf	149,0,c	;volatile
   444  000D2C                     
   445                           ;newmain.c: 262: TRISDbits.RD1=0;
   446  000D2C  9295               	bcf	149,1,c	;volatile
   447  000D2E                     
   448                           ;newmain.c: 263: TRISDbits.RD2=0;
   449  000D2E  9495               	bcf	149,2,c	;volatile
   450  000D30                     
   451                           ;newmain.c: 264: TRISDbits.RD3=0;
   452  000D30  9695               	bcf	149,3,c	;volatile
   453  000D32                     
   454                           ;newmain.c: 265: TRISEbits.RE0=0;
   455  000D32  9096               	bcf	150,0,c	;volatile
   456  000D34                     
   457                           ;newmain.c: 266: TRISEbits.RE1=0;
   458  000D34  9296               	bcf	150,1,c	;volatile
   459                           
   460                           ;newmain.c: 269: int digito1 = 0, digito2 = 0, digito3 = 0;
   461  000D36  0E00               	movlw	0
   462  000D38  6E35               	movwf	(main@digito1+1)^0,c
   463  000D3A  0E00               	movlw	0
   464  000D3C  6E34               	movwf	main@digito1^0,c
   465  000D3E  0E00               	movlw	0
   466  000D40  6E37               	movwf	(main@digito2+1)^0,c
   467  000D42  0E00               	movlw	0
   468  000D44  6E36               	movwf	main@digito2^0,c
   469  000D46  0E00               	movlw	0
   470  000D48  6E39               	movwf	(main@digito3+1)^0,c
   471  000D4A  0E00               	movlw	0
   472  000D4C  6E38               	movwf	main@digito3^0,c
   473                           
   474                           ;newmain.c: 270: int temperatura1 = 0, temperatura2 = 0, temperatura3 = 0;
   475  000D4E  0E00               	movlw	0
   476  000D50  6E3D               	movwf	(main@temperatura1+1)^0,c
   477  000D52  0E00               	movlw	0
   478  000D54  6E3C               	movwf	main@temperatura1^0,c
   479  000D56  0E00               	movlw	0
   480  000D58  6E41               	movwf	(main@temperatura2+1)^0,c
   481  000D5A  0E00               	movlw	0
   482  000D5C  6E40               	movwf	main@temperatura2^0,c
   483  000D5E  0E00               	movlw	0
   484  000D60  6E3F               	movwf	(main@temperatura3+1)^0,c
   485  000D62  0E00               	movlw	0
   486  000D64  6E3E               	movwf	main@temperatura3^0,c
   487                           
   488                           ;newmain.c: 271: int temp[2];;newmain.c: 272: ADCON1 = 0b00001101;
   489  000D66  0E0D               	movlw	13
   490  000D68  6EC1               	movwf	193,c	;volatile
   491                           
   492                           ;newmain.c: 273: ADCON0 = 0b00000001;
   493  000D6A  0E01               	movlw	1
   494  000D6C  6EC2               	movwf	194,c	;volatile
   495                           
   496                           ;newmain.c: 274: ADCON2 = 0b10010101;
   497  000D6E  0E95               	movlw	149
   498  000D70  6EC0               	movwf	192,c	;volatile
   499  000D72                     
   500                           ;newmain.c: 278: OpenXLCD(0b00101100 & 0b00111000);
   501  000D72  0E28               	movlw	40
   502  000D74  EC13  F00C         	call	_OpenXLCD
   503  000D78  EF23  F007         	goto	l2232
   504  000D7C                     l2214:
   505                           
   506                           ;newmain.c: 282:       WriteCmdXLCD(0x80);
   507  000D7C  0E80               	movlw	128
   508  000D7E  EC11  F00D         	call	_WriteCmdXLCD
   509  000D82                     
   510                           ;newmain.c: 283:       putsXLCD (" temp1:");
   511  000D82  0E11               	movlw	low STR_1
   512  000D84  6E02               	movwf	putsXLCD@buffer^0,c
   513  000D86  0E08               	movlw	high STR_1
   514  000D88  6E03               	movwf	(putsXLCD@buffer+1)^0,c
   515  000D8A  EC8A  F00C         	call	_putsXLCD	;wreg free
   516  000D8E                     
   517                           ;newmain.c: 284:       temp[0] = LeTecladoMatricial(0);
   518  000D8E  0E00               	movlw	0
   519  000D90  6E04               	movwf	(LeTecladoMatricial@contador+1)^0,c
   520  000D92  0E00               	movlw	0
   521  000D94  6E03               	movwf	LeTecladoMatricial@contador^0,c
   522  000D96  EC15  F004         	call	_LeTecladoMatricial	;wreg free
   523  000D9A  C003  F042         	movff	?_LeTecladoMatricial,main@temp
   524  000D9E  C004  F043         	movff	?_LeTecladoMatricial+1,main@temp+1
   525  000DA2                     
   526                           ;newmain.c: 285:       temp[1] = LeTecladoMatricial(1);
   527  000DA2  0E00               	movlw	0
   528  000DA4  6E04               	movwf	(LeTecladoMatricial@contador+1)^0,c
   529  000DA6  0E01               	movlw	1
   530  000DA8  6E03               	movwf	LeTecladoMatricial@contador^0,c
   531  000DAA  EC15  F004         	call	_LeTecladoMatricial	;wreg free
   532  000DAE  C003  F044         	movff	?_LeTecladoMatricial,main@temp+2
   533  000DB2  C004  F045         	movff	?_LeTecladoMatricial+1,main@temp+3
   534  000DB6                     
   535                           ;newmain.c: 286:       temperatura1 = temp[0]*10 + temp[1];
   536  000DB6  C042  F001         	movff	main@temp,___wmul@multiplier
   537  000DBA  C043  F002         	movff	main@temp+1,___wmul@multiplier+1
   538  000DBE  0E00               	movlw	0
   539  000DC0  6E04               	movwf	(___wmul@multiplicand+1)^0,c
   540  000DC2  0E0A               	movlw	10
   541  000DC4  6E03               	movwf	___wmul@multiplicand^0,c
   542  000DC6  EC4D  F00D         	call	___wmul	;wreg free
   543  000DCA  5044               	movf	(main@temp+2)^0,w,c
   544  000DCC  2401               	addwf	?___wmul^0,w,c
   545  000DCE  6E3C               	movwf	main@temperatura1^0,c
   546  000DD0  5045               	movf	(main@temp+3)^0,w,c
   547  000DD2  2002               	addwfc	(?___wmul+1)^0,w,c
   548  000DD4  6E3D               	movwf	(main@temperatura1+1)^0,c
   549  000DD6                     
   550                           ;newmain.c: 287:       temperatura1 = temperatura1*2.05;
   551  000DD6  0E33               	movlw	51
   552  000DD8  6E13               	movwf	___flmul@a^0,c
   553  000DDA  0E33               	movlw	51
   554  000DDC  6E14               	movwf	(___flmul@a+1)^0,c
   555  000DDE  0E03               	movlw	3
   556  000DE0  6E15               	movwf	(___flmul@a+2)^0,c
   557  000DE2  0E40               	movlw	64
   558  000DE4  6E16               	movwf	(___flmul@a+3)^0,c
   559  000DE6  C03C  F001         	movff	main@temperatura1,___xxtofl@val
   560  000DEA  C03D  F002         	movff	main@temperatura1+1,___xxtofl@val+1
   561  000DEE  0E00               	movlw	0
   562  000DF0  BE02               	btfsc	(___xxtofl@val+1)^0,7,c
   563  000DF2  0EFF               	movlw	-1
   564  000DF4  6E03               	movwf	(___xxtofl@val+2)^0,c
   565  000DF6  6E04               	movwf	(___xxtofl@val+3)^0,c
   566  000DF8  0E01               	movlw	1
   567  000DFA  ECB6  F00A         	call	___xxtofl
   568  000DFE  C001  F00F         	movff	?___xxtofl,___flmul@b
   569  000E02  C002  F010         	movff	?___xxtofl+1,___flmul@b+1
   570  000E06  C003  F011         	movff	?___xxtofl+2,___flmul@b+2
   571  000E0A  C004  F012         	movff	?___xxtofl+3,___flmul@b+3
   572  000E0E  ECA1  F008         	call	___flmul	;wreg free
   573  000E12  C00F  F028         	movff	?___flmul,___fltol@f1
   574  000E16  C010  F029         	movff	?___flmul+1,___fltol@f1+1
   575  000E1A  C011  F02A         	movff	?___flmul+2,___fltol@f1+2
   576  000E1E  C012  F02B         	movff	?___flmul+3,___fltol@f1+3
   577  000E22  EC90  F00B         	call	___fltol	;wreg free
   578  000E26  C028  F03C         	movff	?___fltol,main@temperatura1
   579  000E2A  C029  F03D         	movff	?___fltol+1,main@temperatura1+1
   580  000E2E                     
   581                           ;newmain.c: 288:       temp[0] = ((void*)0);
   582  000E2E  0E00               	movlw	0
   583  000E30  6E43               	movwf	(main@temp+1)^0,c
   584  000E32  0E00               	movlw	0
   585  000E34  6E42               	movwf	main@temp^0,c
   586  000E36                     
   587                           ;newmain.c: 289:       temp[1] = ((void*)0);
   588  000E36  0E00               	movlw	0
   589  000E38  6E45               	movwf	(main@temp+3)^0,c
   590  000E3A  0E00               	movlw	0
   591  000E3C  6E44               	movwf	(main@temp+2)^0,c
   592  000E3E                     
   593                           ;newmain.c: 290:       digito1 = 1;
   594  000E3E  0E00               	movlw	0
   595  000E40  6E35               	movwf	(main@digito1+1)^0,c
   596  000E42  0E01               	movlw	1
   597  000E44  6E34               	movwf	main@digito1^0,c
   598  000E46                     l2232:
   599                           
   600                           ;newmain.c: 280:     while (digito1 == 0){
   601  000E46  5034               	movf	main@digito1^0,w,c
   602  000E48  1035               	iorwf	(main@digito1+1)^0,w,c
   603  000E4A  B4D8               	btfsc	status,2,c
   604  000E4C  EF2A  F007         	goto	u1331
   605  000E50  EF2C  F007         	goto	u1330
   606  000E54                     u1331:
   607  000E54  EFBE  F006         	goto	l2214
   608  000E58                     u1330:
   609  000E58  EFBF  F007         	goto	l2260
   610  000E5C                     l2234:
   611                           
   612                           ;newmain.c: 294:       WriteCmdXLCD(0x01);
   613  000E5C  0E01               	movlw	1
   614  000E5E  EC11  F00D         	call	_WriteCmdXLCD
   615                           
   616                           ;newmain.c: 295:       WriteCmdXLCD(0x80);
   617  000E62  0E80               	movlw	128
   618  000E64  EC11  F00D         	call	_WriteCmdXLCD
   619  000E68                     
   620                           ;newmain.c: 296:       putsXLCD (" temp2:");
   621  000E68  0E19               	movlw	low STR_2
   622  000E6A  6E02               	movwf	putsXLCD@buffer^0,c
   623  000E6C  0E08               	movlw	high STR_2
   624  000E6E  6E03               	movwf	(putsXLCD@buffer+1)^0,c
   625  000E70  EC8A  F00C         	call	_putsXLCD	;wreg free
   626  000E74                     
   627                           ;newmain.c: 297:       temp[0] = LeTecladoMatricial(0);
   628  000E74  0E00               	movlw	0
   629  000E76  6E04               	movwf	(LeTecladoMatricial@contador+1)^0,c
   630  000E78  0E00               	movlw	0
   631  000E7A  6E03               	movwf	LeTecladoMatricial@contador^0,c
   632  000E7C  EC15  F004         	call	_LeTecladoMatricial	;wreg free
   633  000E80  C003  F042         	movff	?_LeTecladoMatricial,main@temp
   634  000E84  C004  F043         	movff	?_LeTecladoMatricial+1,main@temp+1
   635  000E88                     
   636                           ;newmain.c: 298:       temp[1] = LeTecladoMatricial(1);
   637  000E88  0E00               	movlw	0
   638  000E8A  6E04               	movwf	(LeTecladoMatricial@contador+1)^0,c
   639  000E8C  0E01               	movlw	1
   640  000E8E  6E03               	movwf	LeTecladoMatricial@contador^0,c
   641  000E90  EC15  F004         	call	_LeTecladoMatricial	;wreg free
   642  000E94  C003  F044         	movff	?_LeTecladoMatricial,main@temp+2
   643  000E98  C004  F045         	movff	?_LeTecladoMatricial+1,main@temp+3
   644  000E9C                     
   645                           ;newmain.c: 299:       temperatura2 = temp[0]*10 + temp[1];
   646  000E9C  C042  F001         	movff	main@temp,___wmul@multiplier
   647  000EA0  C043  F002         	movff	main@temp+1,___wmul@multiplier+1
   648  000EA4  0E00               	movlw	0
   649  000EA6  6E04               	movwf	(___wmul@multiplicand+1)^0,c
   650  000EA8  0E0A               	movlw	10
   651  000EAA  6E03               	movwf	___wmul@multiplicand^0,c
   652  000EAC  EC4D  F00D         	call	___wmul	;wreg free
   653  000EB0  5044               	movf	(main@temp+2)^0,w,c
   654  000EB2  2401               	addwf	?___wmul^0,w,c
   655  000EB4  6E40               	movwf	main@temperatura2^0,c
   656  000EB6  5045               	movf	(main@temp+3)^0,w,c
   657  000EB8  2002               	addwfc	(?___wmul+1)^0,w,c
   658  000EBA  6E41               	movwf	(main@temperatura2+1)^0,c
   659  000EBC                     
   660                           ;newmain.c: 300:       temperatura2 = temperatura2*2.05;
   661  000EBC  0E33               	movlw	51
   662  000EBE  6E13               	movwf	___flmul@a^0,c
   663  000EC0  0E33               	movlw	51
   664  000EC2  6E14               	movwf	(___flmul@a+1)^0,c
   665  000EC4  0E03               	movlw	3
   666  000EC6  6E15               	movwf	(___flmul@a+2)^0,c
   667  000EC8  0E40               	movlw	64
   668  000ECA  6E16               	movwf	(___flmul@a+3)^0,c
   669  000ECC  C040  F001         	movff	main@temperatura2,___xxtofl@val
   670  000ED0  C041  F002         	movff	main@temperatura2+1,___xxtofl@val+1
   671  000ED4  0E00               	movlw	0
   672  000ED6  BE02               	btfsc	(___xxtofl@val+1)^0,7,c
   673  000ED8  0EFF               	movlw	-1
   674  000EDA  6E03               	movwf	(___xxtofl@val+2)^0,c
   675  000EDC  6E04               	movwf	(___xxtofl@val+3)^0,c
   676  000EDE  0E01               	movlw	1
   677  000EE0  ECB6  F00A         	call	___xxtofl
   678  000EE4  C001  F00F         	movff	?___xxtofl,___flmul@b
   679  000EE8  C002  F010         	movff	?___xxtofl+1,___flmul@b+1
   680  000EEC  C003  F011         	movff	?___xxtofl+2,___flmul@b+2
   681  000EF0  C004  F012         	movff	?___xxtofl+3,___flmul@b+3
   682  000EF4  ECA1  F008         	call	___flmul	;wreg free
   683  000EF8  C00F  F028         	movff	?___flmul,___fltol@f1
   684  000EFC  C010  F029         	movff	?___flmul+1,___fltol@f1+1
   685  000F00  C011  F02A         	movff	?___flmul+2,___fltol@f1+2
   686  000F04  C012  F02B         	movff	?___flmul+3,___fltol@f1+3
   687  000F08  EC90  F00B         	call	___fltol	;wreg free
   688  000F0C  C028  F040         	movff	?___fltol,main@temperatura2
   689  000F10  C029  F041         	movff	?___fltol+1,main@temperatura2+1
   690  000F14                     
   691                           ;newmain.c: 301:       temp[0] = ((void*)0);
   692  000F14  0E00               	movlw	0
   693  000F16  6E43               	movwf	(main@temp+1)^0,c
   694  000F18  0E00               	movlw	0
   695  000F1A  6E42               	movwf	main@temp^0,c
   696  000F1C                     
   697                           ;newmain.c: 302:       temp[1] = ((void*)0);
   698  000F1C  0E00               	movlw	0
   699  000F1E  6E45               	movwf	(main@temp+3)^0,c
   700  000F20  0E00               	movlw	0
   701  000F22  6E44               	movwf	(main@temp+2)^0,c
   702  000F24                     
   703                           ;newmain.c: 303:       if(temperatura1>=temperatura2){
   704  000F24  5040               	movf	main@temperatura2^0,w,c
   705  000F26  5C3C               	subwf	main@temperatura1^0,w,c
   706  000F28  503D               	movf	(main@temperatura1+1)^0,w,c
   707  000F2A  0A80               	xorlw	128
   708  000F2C  6E32               	movwf	??_main^0,c
   709  000F2E  5041               	movf	(main@temperatura2+1)^0,w,c
   710  000F30  0A80               	xorlw	128
   711  000F32  5832               	subwfb	??_main^0,w,c
   712  000F34  A0D8               	btfss	status,0,c
   713  000F36  EF9F  F007         	goto	u1341
   714  000F3A  EFA1  F007         	goto	u1340
   715  000F3E                     u1341:
   716  000F3E  EFBB  F007         	goto	l2258
   717  000F42                     u1340:
   718  000F42                     
   719                           ;newmain.c: 304:       WriteCmdXLCD(0x01);
   720  000F42  0E01               	movlw	1
   721  000F44  EC11  F00D         	call	_WriteCmdXLCD
   722                           
   723                           ;newmain.c: 305:       WriteCmdXLCD(0x80);
   724  000F48  0E80               	movlw	128
   725  000F4A  EC11  F00D         	call	_WriteCmdXLCD
   726  000F4E                     
   727                           ;newmain.c: 306:       putsXLCD (" Valor invalido");
   728  000F4E  0E01               	movlw	low STR_3
   729  000F50  6E02               	movwf	putsXLCD@buffer^0,c
   730  000F52  0E08               	movlw	high STR_3
   731  000F54  6E03               	movwf	(putsXLCD@buffer+1)^0,c
   732  000F56  EC8A  F00C         	call	_putsXLCD	;wreg free
   733  000F5A                     
   734                           ;newmain.c: 307:       _delay((unsigned long)((1000)*(20000000/4000.0)));
   735  000F5A  0E1A               	movlw	26
   736  000F5C  6E33               	movwf	(??_main+1)^0,c
   737  000F5E  0E5E               	movlw	94
   738  000F60  6E32               	movwf	??_main^0,c
   739  000F62  0E6E               	movlw	110
   740  000F64                     u1417:
   741  000F64  2EE8               	decfsz	wreg,f,c
   742  000F66  D7FE               	bra	u1417
   743  000F68  2E32               	decfsz	??_main^0,f,c
   744  000F6A  D7FC               	bra	u1417
   745  000F6C  2E33               	decfsz	(??_main+1)^0,f,c
   746  000F6E  D7FA               	bra	u1417
   747  000F70  D000               	nop2	
   748                           
   749                           ;newmain.c: 308:       }
   750  000F72  EFBF  F007         	goto	l2260
   751  000F76                     l2258:
   752                           
   753                           ;newmain.c: 310:           digito2=1;
   754  000F76  0E00               	movlw	0
   755  000F78  6E37               	movwf	(main@digito2+1)^0,c
   756  000F7A  0E01               	movlw	1
   757  000F7C  6E36               	movwf	main@digito2^0,c
   758  000F7E                     l2260:
   759                           
   760                           ;newmain.c: 292:     while (digito2 == 0){
   761  000F7E  5036               	movf	main@digito2^0,w,c
   762  000F80  1037               	iorwf	(main@digito2+1)^0,w,c
   763  000F82  B4D8               	btfsc	status,2,c
   764  000F84  EFC6  F007         	goto	u1351
   765  000F88  EFC8  F007         	goto	u1350
   766  000F8C                     u1351:
   767  000F8C  EF2E  F007         	goto	l2234
   768  000F90                     u1350:
   769  000F90  EF5B  F008         	goto	l2288
   770  000F94                     l2262:
   771                           
   772                           ;newmain.c: 315:       WriteCmdXLCD(0x01);
   773  000F94  0E01               	movlw	1
   774  000F96  EC11  F00D         	call	_WriteCmdXLCD
   775                           
   776                           ;newmain.c: 316:       WriteCmdXLCD(0x80);
   777  000F9A  0E80               	movlw	128
   778  000F9C  EC11  F00D         	call	_WriteCmdXLCD
   779  000FA0                     
   780                           ;newmain.c: 317:       putsXLCD (" temp3:");
   781  000FA0  0E21               	movlw	low STR_4
   782  000FA2  6E02               	movwf	putsXLCD@buffer^0,c
   783  000FA4  0E08               	movlw	high STR_4
   784  000FA6  6E03               	movwf	(putsXLCD@buffer+1)^0,c
   785  000FA8  EC8A  F00C         	call	_putsXLCD	;wreg free
   786  000FAC                     
   787                           ;newmain.c: 318:       temp[0] = LeTecladoMatricial(0);
   788  000FAC  0E00               	movlw	0
   789  000FAE  6E04               	movwf	(LeTecladoMatricial@contador+1)^0,c
   790  000FB0  0E00               	movlw	0
   791  000FB2  6E03               	movwf	LeTecladoMatricial@contador^0,c
   792  000FB4  EC15  F004         	call	_LeTecladoMatricial	;wreg free
   793  000FB8  C003  F042         	movff	?_LeTecladoMatricial,main@temp
   794  000FBC  C004  F043         	movff	?_LeTecladoMatricial+1,main@temp+1
   795  000FC0                     
   796                           ;newmain.c: 319:       temp[1] = LeTecladoMatricial(1);
   797  000FC0  0E00               	movlw	0
   798  000FC2  6E04               	movwf	(LeTecladoMatricial@contador+1)^0,c
   799  000FC4  0E01               	movlw	1
   800  000FC6  6E03               	movwf	LeTecladoMatricial@contador^0,c
   801  000FC8  EC15  F004         	call	_LeTecladoMatricial	;wreg free
   802  000FCC  C003  F044         	movff	?_LeTecladoMatricial,main@temp+2
   803  000FD0  C004  F045         	movff	?_LeTecladoMatricial+1,main@temp+3
   804  000FD4                     
   805                           ;newmain.c: 320:       temperatura3 = temp[0]*10 + temp[1];
   806  000FD4  C042  F001         	movff	main@temp,___wmul@multiplier
   807  000FD8  C043  F002         	movff	main@temp+1,___wmul@multiplier+1
   808  000FDC  0E00               	movlw	0
   809  000FDE  6E04               	movwf	(___wmul@multiplicand+1)^0,c
   810  000FE0  0E0A               	movlw	10
   811  000FE2  6E03               	movwf	___wmul@multiplicand^0,c
   812  000FE4  EC4D  F00D         	call	___wmul	;wreg free
   813  000FE8  5044               	movf	(main@temp+2)^0,w,c
   814  000FEA  2401               	addwf	?___wmul^0,w,c
   815  000FEC  6E3E               	movwf	main@temperatura3^0,c
   816  000FEE  5045               	movf	(main@temp+3)^0,w,c
   817  000FF0  2002               	addwfc	(?___wmul+1)^0,w,c
   818  000FF2  6E3F               	movwf	(main@temperatura3+1)^0,c
   819  000FF4                     
   820                           ;newmain.c: 321:       temperatura3 = temperatura3*2.05;
   821  000FF4  0E33               	movlw	51
   822  000FF6  6E13               	movwf	___flmul@a^0,c
   823  000FF8  0E33               	movlw	51
   824  000FFA  6E14               	movwf	(___flmul@a+1)^0,c
   825  000FFC  0E03               	movlw	3
   826  000FFE  6E15               	movwf	(___flmul@a+2)^0,c
   827  001000  0E40               	movlw	64
   828  001002  6E16               	movwf	(___flmul@a+3)^0,c
   829  001004  C03E  F001         	movff	main@temperatura3,___xxtofl@val
   830  001008  C03F  F002         	movff	main@temperatura3+1,___xxtofl@val+1
   831  00100C  0E00               	movlw	0
   832  00100E  BE02               	btfsc	(___xxtofl@val+1)^0,7,c
   833  001010  0EFF               	movlw	-1
   834  001012  6E03               	movwf	(___xxtofl@val+2)^0,c
   835  001014  6E04               	movwf	(___xxtofl@val+3)^0,c
   836  001016  0E01               	movlw	1
   837  001018  ECB6  F00A         	call	___xxtofl
   838  00101C  C001  F00F         	movff	?___xxtofl,___flmul@b
   839  001020  C002  F010         	movff	?___xxtofl+1,___flmul@b+1
   840  001024  C003  F011         	movff	?___xxtofl+2,___flmul@b+2
   841  001028  C004  F012         	movff	?___xxtofl+3,___flmul@b+3
   842  00102C  ECA1  F008         	call	___flmul	;wreg free
   843  001030  C00F  F028         	movff	?___flmul,___fltol@f1
   844  001034  C010  F029         	movff	?___flmul+1,___fltol@f1+1
   845  001038  C011  F02A         	movff	?___flmul+2,___fltol@f1+2
   846  00103C  C012  F02B         	movff	?___flmul+3,___fltol@f1+3
   847  001040  EC90  F00B         	call	___fltol	;wreg free
   848  001044  C028  F03E         	movff	?___fltol,main@temperatura3
   849  001048  C029  F03F         	movff	?___fltol+1,main@temperatura3+1
   850  00104C                     
   851                           ;newmain.c: 322:       temp[0] = ((void*)0);
   852  00104C  0E00               	movlw	0
   853  00104E  6E43               	movwf	(main@temp+1)^0,c
   854  001050  0E00               	movlw	0
   855  001052  6E42               	movwf	main@temp^0,c
   856  001054                     
   857                           ;newmain.c: 323:       temp[1] = ((void*)0);
   858  001054  0E00               	movlw	0
   859  001056  6E45               	movwf	(main@temp+3)^0,c
   860  001058  0E00               	movlw	0
   861  00105A  6E44               	movwf	(main@temp+2)^0,c
   862  00105C                     
   863                           ;newmain.c: 324:       if(temperatura2>=temperatura3){
   864  00105C  503E               	movf	main@temperatura3^0,w,c
   865  00105E  5C40               	subwf	main@temperatura2^0,w,c
   866  001060  5041               	movf	(main@temperatura2+1)^0,w,c
   867  001062  0A80               	xorlw	128
   868  001064  6E32               	movwf	??_main^0,c
   869  001066  503F               	movf	(main@temperatura3+1)^0,w,c
   870  001068  0A80               	xorlw	128
   871  00106A  5832               	subwfb	??_main^0,w,c
   872  00106C  A0D8               	btfss	status,0,c
   873  00106E  EF3B  F008         	goto	u1361
   874  001072  EF3D  F008         	goto	u1360
   875  001076                     u1361:
   876  001076  EF57  F008         	goto	l2286
   877  00107A                     u1360:
   878  00107A                     
   879                           ;newmain.c: 325:       WriteCmdXLCD(0x01);
   880  00107A  0E01               	movlw	1
   881  00107C  EC11  F00D         	call	_WriteCmdXLCD
   882                           
   883                           ;newmain.c: 326:       WriteCmdXLCD(0x80);
   884  001080  0E80               	movlw	128
   885  001082  EC11  F00D         	call	_WriteCmdXLCD
   886  001086                     
   887                           ;newmain.c: 327:       putsXLCD (" Valor invalido");
   888  001086  0E01               	movlw	low STR_3
   889  001088  6E02               	movwf	putsXLCD@buffer^0,c
   890  00108A  0E08               	movlw	high STR_3
   891  00108C  6E03               	movwf	(putsXLCD@buffer+1)^0,c
   892  00108E  EC8A  F00C         	call	_putsXLCD	;wreg free
   893  001092                     
   894                           ;newmain.c: 328:       _delay((unsigned long)((1000)*(20000000/4000.0)));
   895  001092  0E1A               	movlw	26
   896  001094  6E33               	movwf	(??_main+1)^0,c
   897  001096  0E5E               	movlw	94
   898  001098  6E32               	movwf	??_main^0,c
   899  00109A  0E6E               	movlw	110
   900  00109C                     u1427:
   901  00109C  2EE8               	decfsz	wreg,f,c
   902  00109E  D7FE               	bra	u1427
   903  0010A0  2E32               	decfsz	??_main^0,f,c
   904  0010A2  D7FC               	bra	u1427
   905  0010A4  2E33               	decfsz	(??_main+1)^0,f,c
   906  0010A6  D7FA               	bra	u1427
   907  0010A8  D000               	nop2	
   908                           
   909                           ;newmain.c: 329:       }
   910  0010AA  EF5B  F008         	goto	l2288
   911  0010AE                     l2286:
   912                           
   913                           ;newmain.c: 331:           digito3=1;
   914  0010AE  0E00               	movlw	0
   915  0010B0  6E39               	movwf	(main@digito3+1)^0,c
   916  0010B2  0E01               	movlw	1
   917  0010B4  6E38               	movwf	main@digito3^0,c
   918  0010B6                     l2288:
   919                           
   920                           ;newmain.c: 313:        while (digito3 == 0){
   921  0010B6  5038               	movf	main@digito3^0,w,c
   922  0010B8  1039               	iorwf	(main@digito3+1)^0,w,c
   923  0010BA  B4D8               	btfsc	status,2,c
   924  0010BC  EF62  F008         	goto	u1371
   925  0010C0  EF64  F008         	goto	u1370
   926  0010C4                     u1371:
   927  0010C4  EFCA  F007         	goto	l2262
   928  0010C8                     u1370:
   929  0010C8                     
   930                           ;newmain.c: 334:     ADCON0bits.GO_DONE = 1;
   931  0010C8  82C2               	bsf	194,1,c	;volatile
   932  0010CA                     
   933                           ;newmain.c: 337:         Valor_conversor = 256 * ADRESH + ADRESL;
   934  0010CA  50C4               	movf	196,w,c	;volatile
   935  0010CC  6E33               	movwf	(??_main+1)^0,c
   936  0010CE  6A32               	clrf	??_main^0,c
   937  0010D0  50C3               	movf	195,w,c	;volatile
   938  0010D2  2432               	addwf	??_main^0,w,c
   939  0010D4  6E3A               	movwf	main@Valor_conversor^0,c
   940  0010D6  0E00               	movlw	0
   941  0010D8  2033               	addwfc	(??_main+1)^0,w,c
   942  0010DA  6E3B               	movwf	(main@Valor_conversor+1)^0,c
   943                           
   944                           ;newmain.c: 339:         if (Valor_conversor >= temperatura1){
   945  0010DC  503C               	movf	main@temperatura1^0,w,c
   946  0010DE  5C3A               	subwf	main@Valor_conversor^0,w,c
   947  0010E0  503D               	movf	(main@temperatura1+1)^0,w,c
   948  0010E2  583B               	subwfb	(main@Valor_conversor+1)^0,w,c
   949  0010E4  A0D8               	btfss	status,0,c
   950  0010E6  EF77  F008         	goto	u1381
   951  0010EA  EF79  F008         	goto	u1380
   952  0010EE                     u1381:
   953  0010EE  EF7D  F008         	goto	l84
   954  0010F2                     u1380:
   955  0010F2                     
   956                           ;newmain.c: 340:             PORTDbits.RD0 = 1;
   957  0010F2  8083               	bsf	131,0,c	;volatile
   958                           
   959                           ;newmain.c: 341:             PORTCbits.RC2 = 1;
   960  0010F4  8482               	bsf	130,2,c	;volatile
   961                           
   962                           ;newmain.c: 342:             }
   963  0010F6  EF7F  F008         	goto	l2294
   964  0010FA                     l84:
   965                           
   966                           ;newmain.c: 344:             PORTDbits.RD0 = 0;
   967  0010FA  9083               	bcf	131,0,c	;volatile
   968                           
   969                           ;newmain.c: 345:             PORTCbits.RC2 = 0;
   970  0010FC  9482               	bcf	130,2,c	;volatile
   971  0010FE                     l2294:
   972                           
   973                           ;newmain.c: 347:         if (Valor_conversor >= temperatura2) {
   974  0010FE  5040               	movf	main@temperatura2^0,w,c
   975  001100  5C3A               	subwf	main@Valor_conversor^0,w,c
   976  001102  5041               	movf	(main@temperatura2+1)^0,w,c
   977  001104  583B               	subwfb	(main@Valor_conversor+1)^0,w,c
   978  001106  A0D8               	btfss	status,0,c
   979  001108  EF88  F008         	goto	u1391
   980  00110C  EF8A  F008         	goto	u1390
   981  001110                     u1391:
   982  001110  EF8D  F008         	goto	l86
   983  001114                     u1390:
   984  001114                     
   985                           ;newmain.c: 348:             PORTDbits.RD1 = 1;
   986  001114  8283               	bsf	131,1,c	;volatile
   987                           
   988                           ;newmain.c: 349:         }
   989  001116  EF8E  F008         	goto	l2298
   990  00111A                     l86:
   991                           
   992                           ;newmain.c: 351:          PORTDbits.RD1 = 0;
   993  00111A  9283               	bcf	131,1,c	;volatile
   994  00111C                     l2298:
   995                           
   996                           ;newmain.c: 353:         if (Valor_conversor >= temperatura3) {
   997  00111C  503E               	movf	main@temperatura3^0,w,c
   998  00111E  5C3A               	subwf	main@Valor_conversor^0,w,c
   999  001120  503F               	movf	(main@temperatura3+1)^0,w,c
  1000  001122  583B               	subwfb	(main@Valor_conversor+1)^0,w,c
  1001  001124  A0D8               	btfss	status,0,c
  1002  001126  EF97  F008         	goto	u1401
  1003  00112A  EF99  F008         	goto	u1400
  1004  00112E                     u1401:
  1005  00112E  EF9C  F008         	goto	l88
  1006  001132                     u1400:
  1007  001132                     
  1008                           ;newmain.c: 354:             PORTDbits.RD2 = 1;
  1009  001132  8483               	bsf	131,2,c	;volatile
  1010                           
  1011                           ;newmain.c: 355:         }
  1012  001134  EF23  F007         	goto	l2232
  1013  001138                     l88:
  1014                           
  1015                           ;newmain.c: 357:         PORTDbits.RD2 = 0;
  1016  001138  9483               	bcf	131,2,c	;volatile
  1017  00113A  EF23  F007         	goto	l2232
  1018  00113E  EF00  F000         	goto	start
  1019  001142                     __end_of_main:
  1020                           	callstack 0
  1021                           
  1022 ;; *************** function _putsXLCD *****************
  1023 ;; Defined at:
  1024 ;;		line 510 in file "nxlcd.c"
  1025 ;; Parameters:    Size  Location     Type
  1026 ;;  buffer          2    1[COMRAM] PTR unsigned char 
  1027 ;;		 -> STR_5(16), STR_4(8), STR_3(16), STR_2(8), 
  1028 ;;		 -> STR_1(8), 
  1029 ;; Auto vars:     Size  Location     Type
  1030 ;;		None
  1031 ;; Return value:  Size  Location     Type
  1032 ;;                  1    wreg      void 
  1033 ;; Registers used:
  1034 ;;		wreg, status,2, status,0, tblptrl, tblptrh, tblptru, cstack
  1035 ;; Tracked objects:
  1036 ;;		On entry : 0/0
  1037 ;;		On exit  : 0/0
  1038 ;;		Unchanged: 0/0
  1039 ;; Data sizes:     COMRAM   BANK0   BANK1   BANK2   BANK3   BANK4   BANK5   BANK6   BANK7
  1040 ;;      Params:         2       0       0       0       0       0       0       0       0
  1041 ;;      Locals:         0       0       0       0       0       0       0       0       0
  1042 ;;      Temps:          0       0       0       0       0       0       0       0       0
  1043 ;;      Totals:         2       0       0       0       0       0       0       0       0
  1044 ;;Total ram usage:        2 bytes
  1045 ;; Hardware stack levels used: 1
  1046 ;; Hardware stack levels required when called: 2
  1047 ;; This function calls:
  1048 ;;		_BusyXLCD
  1049 ;;		_WriteDataXLCD
  1050 ;; This function is called by:
  1051 ;;		_main
  1052 ;; This function uses a non-reentrant model
  1053 ;;
  1054                           
  1055                           	psect	text1
  1056  001914                     __ptext1:
  1057                           	callstack 0
  1058  001914                     _putsXLCD:
  1059                           	callstack 28
  1060  001914                     
  1061                           ;nxlcd.c: 510: void putsXLCD(char *buffer);nxlcd.c: 511: {;nxlcd.c: 512:         while(*
      +                          buffer)
  1062  001914  EFA0  F00C         	goto	l1934
  1063  001918                     l1928:
  1064  001918  ECAF  F00C         	call	_BusyXLCD	;wreg free
  1065  00191C  0900               	iorlw	0
  1066  00191E  A4D8               	btfss	status,2,c
  1067  001920  EF94  F00C         	goto	u951
  1068  001924  EF96  F00C         	goto	u950
  1069  001928                     u951:
  1070  001928  EF8C  F00C         	goto	l1928
  1071  00192C                     u950:
  1072  00192C                     
  1073                           ;nxlcd.c: 515:                 WriteDataXLCD(*buffer);
  1074  00192C  C002  FFF6         	movff	putsXLCD@buffer,tblptrl
  1075  001930  C003  FFF7         	movff	putsXLCD@buffer+1,tblptrh
  1076  001934                     	if	0	;tblptru may be non-zero
  1077  001934                     	endif
  1078  001934                     	if	0	;tblptru may be non-zero
  1079  001934                     	endif
  1080  001934  0008               	tblrd		*
  1081  001936  50F5               	movf	tablat,w,c
  1082  001938  ECF2  F00C         	call	_WriteDataXLCD
  1083  00193C                     
  1084                           ;nxlcd.c: 516:                 buffer++;
  1085  00193C  4A02               	infsnz	putsXLCD@buffer^0,f,c
  1086  00193E  2A03               	incf	(putsXLCD@buffer+1)^0,f,c
  1087  001940                     l1934:
  1088                           
  1089                           ;nxlcd.c: 512:         while(*buffer)
  1090  001940  C002  FFF6         	movff	putsXLCD@buffer,tblptrl
  1091  001944  C003  FFF7         	movff	putsXLCD@buffer+1,tblptrh
  1092  001948                     	if	0	;tblptru may be non-zero
  1093  001948                     	endif
  1094  001948                     	if	0	;tblptru may be non-zero
  1095  001948                     	endif
  1096  001948  0008               	tblrd		*
  1097  00194A  50F5               	movf	tablat,w,c
  1098  00194C  0900               	iorlw	0
  1099  00194E  A4D8               	btfss	status,2,c
  1100  001950  EFAC  F00C         	goto	u961
  1101  001954  EFAE  F00C         	goto	u960
  1102  001958                     u961:
  1103  001958  EF8C  F00C         	goto	l1928
  1104  00195C                     u960:
  1105  00195C  0012               	return		;funcret
  1106  00195E                     __end_of_putsXLCD:
  1107                           	callstack 0
  1108                           
  1109 ;; *************** function ___xxtofl *****************
  1110 ;; Defined at:
  1111 ;;		line 10 in file "C:\Program Files\Microchip\xc8\v2.32\pic\sources\c99\common\xxtofl.c"
  1112 ;; Parameters:    Size  Location     Type
  1113 ;;  sign            1    wreg     unsigned char 
  1114 ;;  val             4    0[COMRAM] long 
  1115 ;; Auto vars:     Size  Location     Type
  1116 ;;  sign            1    8[COMRAM] unsigned char 
  1117 ;;  arg             4   10[COMRAM] unsigned long 
  1118 ;;  exp             1    9[COMRAM] unsigned char 
  1119 ;; Return value:  Size  Location     Type
  1120 ;;                  4    0[COMRAM] unsigned char 
  1121 ;; Registers used:
  1122 ;;		wreg, status,2, status,0
  1123 ;; Tracked objects:
  1124 ;;		On entry : 0/0
  1125 ;;		On exit  : 0/0
  1126 ;;		Unchanged: 0/0
  1127 ;; Data sizes:     COMRAM   BANK0   BANK1   BANK2   BANK3   BANK4   BANK5   BANK6   BANK7
  1128 ;;      Params:         4       0       0       0       0       0       0       0       0
  1129 ;;      Locals:         6       0       0       0       0       0       0       0       0
  1130 ;;      Temps:          4       0       0       0       0       0       0       0       0
  1131 ;;      Totals:        14       0       0       0       0       0       0       0       0
  1132 ;;Total ram usage:       14 bytes
  1133 ;; Hardware stack levels used: 1
  1134 ;; This function calls:
  1135 ;;		Nothing
  1136 ;; This function is called by:
  1137 ;;		_main
  1138 ;; This function uses a non-reentrant model
  1139 ;;
  1140                           
  1141                           	psect	text2
  1142  00156C                     __ptext2:
  1143                           	callstack 0
  1144  00156C                     ___xxtofl:
  1145                           	callstack 30
  1146                           
  1147                           ;incstack = 0
  1148                           ;___xxtofl@sign stored from wreg
  1149  00156C  6E09               	movwf	___xxtofl@sign^0,c
  1150  00156E  5009               	movf	___xxtofl@sign^0,w,c
  1151  001570  B4D8               	btfsc	status,2,c
  1152  001572  EFBD  F00A         	goto	u1231
  1153  001576  EFBF  F00A         	goto	u1230
  1154  00157A                     u1231:
  1155  00157A  EFE1  F00A         	goto	l840
  1156  00157E                     u1230:
  1157  00157E  BE04               	btfsc	(___xxtofl@val+3)^0,7,c
  1158  001580  EFC6  F00A         	goto	u1240
  1159  001584  EFC4  F00A         	goto	u1241
  1160  001588                     u1241:
  1161  001588  EFE1  F00A         	goto	l840
  1162  00158C                     u1240:
  1163  00158C  C001  F005         	movff	___xxtofl@val,??___xxtofl
  1164  001590  C002  F006         	movff	___xxtofl@val+1,??___xxtofl+1
  1165  001594  C003  F007         	movff	___xxtofl@val+2,??___xxtofl+2
  1166  001598  C004  F008         	movff	___xxtofl@val+3,??___xxtofl+3
  1167  00159C  1E05               	comf	??___xxtofl^0,f,c
  1168  00159E  1E06               	comf	(??___xxtofl+1)^0,f,c
  1169  0015A0  1E07               	comf	(??___xxtofl+2)^0,f,c
  1170  0015A2  1E08               	comf	(??___xxtofl+3)^0,f,c
  1171  0015A4  2A05               	incf	??___xxtofl^0,f,c
  1172  0015A6  0E00               	movlw	0
  1173  0015A8  2206               	addwfc	(??___xxtofl+1)^0,f,c
  1174  0015AA  2207               	addwfc	(??___xxtofl+2)^0,f,c
  1175  0015AC  2208               	addwfc	(??___xxtofl+3)^0,f,c
  1176  0015AE  C005  F00B         	movff	??___xxtofl,___xxtofl@arg
  1177  0015B2  C006  F00C         	movff	??___xxtofl+1,___xxtofl@arg+1
  1178  0015B6  C007  F00D         	movff	??___xxtofl+2,___xxtofl@arg+2
  1179  0015BA  C008  F00E         	movff	??___xxtofl+3,___xxtofl@arg+3
  1180  0015BE  EFE9  F00A         	goto	l2122
  1181  0015C2                     l840:
  1182  0015C2  C001  F00B         	movff	___xxtofl@val,___xxtofl@arg
  1183  0015C6  C002  F00C         	movff	___xxtofl@val+1,___xxtofl@arg+1
  1184  0015CA  C003  F00D         	movff	___xxtofl@val+2,___xxtofl@arg+2
  1185  0015CE  C004  F00E         	movff	___xxtofl@val+3,___xxtofl@arg+3
  1186  0015D2                     l2122:
  1187  0015D2  5001               	movf	___xxtofl@val^0,w,c
  1188  0015D4  1002               	iorwf	(___xxtofl@val+1)^0,w,c
  1189  0015D6  1003               	iorwf	(___xxtofl@val+2)^0,w,c
  1190  0015D8  1004               	iorwf	(___xxtofl@val+3)^0,w,c
  1191  0015DA  A4D8               	btfss	status,2,c
  1192  0015DC  EFF2  F00A         	goto	u1251
  1193  0015E0  EFF4  F00A         	goto	u1250
  1194  0015E4                     u1251:
  1195  0015E4  EFFE  F00A         	goto	l2128
  1196  0015E8                     u1250:
  1197  0015E8  0E00               	movlw	0
  1198  0015EA  6E01               	movwf	?___xxtofl^0,c
  1199  0015EC  0E00               	movlw	0
  1200  0015EE  6E02               	movwf	(?___xxtofl+1)^0,c
  1201  0015F0  0E00               	movlw	0
  1202  0015F2  6E03               	movwf	(?___xxtofl+2)^0,c
  1203  0015F4  0E00               	movlw	0
  1204  0015F6  6E04               	movwf	(?___xxtofl+3)^0,c
  1205  0015F8  EF8F  F00B         	goto	l843
  1206  0015FC                     l2128:
  1207  0015FC  0E96               	movlw	150
  1208  0015FE  6E0A               	movwf	___xxtofl@exp^0,c
  1209  001600  EF08  F00B         	goto	l2132
  1210  001604                     l2130:
  1211  001604  2A0A               	incf	___xxtofl@exp^0,f,c
  1212  001606  90D8               	bcf	status,0,c
  1213  001608  320E               	rrcf	(___xxtofl@arg+3)^0,f,c
  1214  00160A  320D               	rrcf	(___xxtofl@arg+2)^0,f,c
  1215  00160C  320C               	rrcf	(___xxtofl@arg+1)^0,f,c
  1216  00160E  320B               	rrcf	___xxtofl@arg^0,f,c
  1217  001610                     l2132:
  1218  001610  0E00               	movlw	0
  1219  001612  140B               	andwf	___xxtofl@arg^0,w,c
  1220  001614  6E05               	movwf	??___xxtofl^0,c
  1221  001616  0E00               	movlw	0
  1222  001618  140C               	andwf	(___xxtofl@arg+1)^0,w,c
  1223  00161A  6E06               	movwf	(??___xxtofl+1)^0,c
  1224  00161C  0E00               	movlw	0
  1225  00161E  140D               	andwf	(___xxtofl@arg+2)^0,w,c
  1226  001620  6E07               	movwf	(??___xxtofl+2)^0,c
  1227  001622  0EFE               	movlw	254
  1228  001624  140E               	andwf	(___xxtofl@arg+3)^0,w,c
  1229  001626  6E08               	movwf	(??___xxtofl+3)^0,c
  1230  001628  5005               	movf	??___xxtofl^0,w,c
  1231  00162A  1006               	iorwf	(??___xxtofl+1)^0,w,c
  1232  00162C  1007               	iorwf	(??___xxtofl+2)^0,w,c
  1233  00162E  1008               	iorwf	(??___xxtofl+3)^0,w,c
  1234  001630  A4D8               	btfss	status,2,c
  1235  001632  EF1D  F00B         	goto	u1261
  1236  001636  EF1F  F00B         	goto	u1260
  1237  00163A                     u1261:
  1238  00163A  EF02  F00B         	goto	l2130
  1239  00163E                     u1260:
  1240  00163E  EF2D  F00B         	goto	l847
  1241  001642                     l2134:
  1242  001642  2A0A               	incf	___xxtofl@exp^0,f,c
  1243  001644  0E01               	movlw	1
  1244  001646  260B               	addwf	___xxtofl@arg^0,f,c
  1245  001648  0E00               	movlw	0
  1246  00164A  220C               	addwfc	(___xxtofl@arg+1)^0,f,c
  1247  00164C  220D               	addwfc	(___xxtofl@arg+2)^0,f,c
  1248  00164E  220E               	addwfc	(___xxtofl@arg+3)^0,f,c
  1249  001650  90D8               	bcf	status,0,c
  1250  001652  320E               	rrcf	(___xxtofl@arg+3)^0,f,c
  1251  001654  320D               	rrcf	(___xxtofl@arg+2)^0,f,c
  1252  001656  320C               	rrcf	(___xxtofl@arg+1)^0,f,c
  1253  001658  320B               	rrcf	___xxtofl@arg^0,f,c
  1254  00165A                     l847:
  1255  00165A  0E00               	movlw	0
  1256  00165C  140B               	andwf	___xxtofl@arg^0,w,c
  1257  00165E  6E05               	movwf	??___xxtofl^0,c
  1258  001660  0E00               	movlw	0
  1259  001662  140C               	andwf	(___xxtofl@arg+1)^0,w,c
  1260  001664  6E06               	movwf	(??___xxtofl+1)^0,c
  1261  001666  0E00               	movlw	0
  1262  001668  140D               	andwf	(___xxtofl@arg+2)^0,w,c
  1263  00166A  6E07               	movwf	(??___xxtofl+2)^0,c
  1264  00166C  0EFF               	movlw	255
  1265  00166E  140E               	andwf	(___xxtofl@arg+3)^0,w,c
  1266  001670  6E08               	movwf	(??___xxtofl+3)^0,c
  1267  001672  5005               	movf	??___xxtofl^0,w,c
  1268  001674  1006               	iorwf	(??___xxtofl+1)^0,w,c
  1269  001676  1007               	iorwf	(??___xxtofl+2)^0,w,c
  1270  001678  1008               	iorwf	(??___xxtofl+3)^0,w,c
  1271  00167A  A4D8               	btfss	status,2,c
  1272  00167C  EF42  F00B         	goto	u1271
  1273  001680  EF44  F00B         	goto	u1270
  1274  001684                     u1271:
  1275  001684  EF21  F00B         	goto	l2134
  1276  001688                     u1270:
  1277  001688  EF4C  F00B         	goto	l2142
  1278  00168C                     l2140:
  1279  00168C  060A               	decf	___xxtofl@exp^0,f,c
  1280  00168E  90D8               	bcf	status,0,c
  1281  001690  360B               	rlcf	___xxtofl@arg^0,f,c
  1282  001692  360C               	rlcf	(___xxtofl@arg+1)^0,f,c
  1283  001694  360D               	rlcf	(___xxtofl@arg+2)^0,f,c
  1284  001696  360E               	rlcf	(___xxtofl@arg+3)^0,f,c
  1285  001698                     l2142:
  1286  001698  BE0D               	btfsc	(___xxtofl@arg+2)^0,7,c
  1287  00169A  EF51  F00B         	goto	u1281
  1288  00169E  EF53  F00B         	goto	u1280
  1289  0016A2                     u1281:
  1290  0016A2  EF5B  F00B         	goto	l854
  1291  0016A6                     u1280:
  1292  0016A6  0E02               	movlw	2
  1293  0016A8  600A               	cpfslt	___xxtofl@exp^0,c
  1294  0016AA  EF59  F00B         	goto	u1291
  1295  0016AE  EF5B  F00B         	goto	u1290
  1296  0016B2                     u1291:
  1297  0016B2  EF46  F00B         	goto	l2140
  1298  0016B6                     u1290:
  1299  0016B6                     l854:
  1300  0016B6  B00A               	btfsc	___xxtofl@exp^0,0,c
  1301  0016B8  EF60  F00B         	goto	u1301
  1302  0016BC  EF62  F00B         	goto	u1300
  1303  0016C0                     u1301:
  1304  0016C0  EF63  F00B         	goto	l2148
  1305  0016C4                     u1300:
  1306  0016C4  9E0D               	bcf	(___xxtofl@arg+2)^0,7,c
  1307  0016C6                     l2148:
  1308  0016C6  90D8               	bcf	status,0,c
  1309  0016C8  320A               	rrcf	___xxtofl@exp^0,f,c
  1310  0016CA  C00A  F005         	movff	___xxtofl@exp,??___xxtofl
  1311  0016CE  6A06               	clrf	(??___xxtofl+1)^0,c
  1312  0016D0  6A07               	clrf	(??___xxtofl+2)^0,c
  1313  0016D2  6A08               	clrf	(??___xxtofl+3)^0,c
  1314  0016D4  C005  F008         	movff	??___xxtofl,??___xxtofl+3
  1315  0016D8  6A07               	clrf	(??___xxtofl+2)^0,c
  1316  0016DA  6A06               	clrf	(??___xxtofl+1)^0,c
  1317  0016DC  6A05               	clrf	??___xxtofl^0,c
  1318  0016DE  5005               	movf	??___xxtofl^0,w,c
  1319  0016E0  120B               	iorwf	___xxtofl@arg^0,f,c
  1320  0016E2  5006               	movf	(??___xxtofl+1)^0,w,c
  1321  0016E4  120C               	iorwf	(___xxtofl@arg+1)^0,f,c
  1322  0016E6  5007               	movf	(??___xxtofl+2)^0,w,c
  1323  0016E8  120D               	iorwf	(___xxtofl@arg+2)^0,f,c
  1324  0016EA  5008               	movf	(??___xxtofl+3)^0,w,c
  1325  0016EC  120E               	iorwf	(___xxtofl@arg+3)^0,f,c
  1326  0016EE  5009               	movf	___xxtofl@sign^0,w,c
  1327  0016F0  B4D8               	btfsc	status,2,c
  1328  0016F2  EF7D  F00B         	goto	u1311
  1329  0016F6  EF7F  F00B         	goto	u1310
  1330  0016FA                     u1311:
  1331  0016FA  EF87  F00B         	goto	l2158
  1332  0016FE                     u1310:
  1333  0016FE  BE04               	btfsc	(___xxtofl@val+3)^0,7,c
  1334  001700  EF86  F00B         	goto	u1320
  1335  001704  EF84  F00B         	goto	u1321
  1336  001708                     u1321:
  1337  001708  EF87  F00B         	goto	l2158
  1338  00170C                     u1320:
  1339  00170C  8E0E               	bsf	(___xxtofl@arg+3)^0,7,c
  1340  00170E                     l2158:
  1341  00170E  C00B  F001         	movff	___xxtofl@arg,?___xxtofl
  1342  001712  C00C  F002         	movff	___xxtofl@arg+1,?___xxtofl+1
  1343  001716  C00D  F003         	movff	___xxtofl@arg+2,?___xxtofl+2
  1344  00171A  C00E  F004         	movff	___xxtofl@arg+3,?___xxtofl+3
  1345  00171E                     l843:
  1346  00171E  0012               	return		;funcret
  1347  001720                     __end_of___xxtofl:
  1348                           	callstack 0
  1349                           
  1350 ;; *************** function ___wmul *****************
  1351 ;; Defined at:
  1352 ;;		line 15 in file "C:\Program Files\Microchip\xc8\v2.32\pic\sources\c99\common\Umul16.c"
  1353 ;; Parameters:    Size  Location     Type
  1354 ;;  multiplier      2    0[COMRAM] unsigned int 
  1355 ;;  multiplicand    2    2[COMRAM] unsigned int 
  1356 ;; Auto vars:     Size  Location     Type
  1357 ;;  product         2    4[COMRAM] unsigned int 
  1358 ;; Return value:  Size  Location     Type
  1359 ;;                  2    0[COMRAM] unsigned int 
  1360 ;; Registers used:
  1361 ;;		wreg, status,2, status,0, prodl, prodh
  1362 ;; Tracked objects:
  1363 ;;		On entry : 0/0
  1364 ;;		On exit  : 0/0
  1365 ;;		Unchanged: 0/0
  1366 ;; Data sizes:     COMRAM   BANK0   BANK1   BANK2   BANK3   BANK4   BANK5   BANK6   BANK7
  1367 ;;      Params:         4       0       0       0       0       0       0       0       0
  1368 ;;      Locals:         2       0       0       0       0       0       0       0       0
  1369 ;;      Temps:          0       0       0       0       0       0       0       0       0
  1370 ;;      Totals:         6       0       0       0       0       0       0       0       0
  1371 ;;Total ram usage:        6 bytes
  1372 ;; Hardware stack levels used: 1
  1373 ;; This function calls:
  1374 ;;		Nothing
  1375 ;; This function is called by:
  1376 ;;		_main
  1377 ;; This function uses a non-reentrant model
  1378 ;;
  1379                           
  1380                           	psect	text3
  1381  001A9A                     __ptext3:
  1382                           	callstack 0
  1383  001A9A                     ___wmul:
  1384                           	callstack 30
  1385  001A9A  5001               	movf	___wmul@multiplier^0,w,c
  1386  001A9C  0203               	mulwf	___wmul@multiplicand^0,c
  1387  001A9E  CFF3 F005          	movff	prodl,___wmul@product
  1388  001AA2  CFF4 F006          	movff	prodh,___wmul@product+1
  1389  001AA6  5001               	movf	___wmul@multiplier^0,w,c
  1390  001AA8  0204               	mulwf	(___wmul@multiplicand+1)^0,c
  1391  001AAA  50F3               	movf	243,w,c
  1392  001AAC  2606               	addwf	(___wmul@product+1)^0,f,c
  1393  001AAE  5002               	movf	(___wmul@multiplier+1)^0,w,c
  1394  001AB0  0203               	mulwf	___wmul@multiplicand^0,c
  1395  001AB2  50F3               	movf	243,w,c
  1396  001AB4  2606               	addwf	(___wmul@product+1)^0,f,c
  1397  001AB6  C005  F001         	movff	___wmul@product,?___wmul
  1398  001ABA  C006  F002         	movff	___wmul@product+1,?___wmul+1
  1399  001ABE  0012               	return		;funcret
  1400  001AC0                     __end_of___wmul:
  1401                           	callstack 0
  1402                           
  1403 ;; *************** function ___fltol *****************
  1404 ;; Defined at:
  1405 ;;		line 43 in file "C:\Program Files\Microchip\xc8\v2.32\pic\sources\c99\common\fltol.c"
  1406 ;; Parameters:    Size  Location     Type
  1407 ;;  f1              4   39[COMRAM] unsigned int 
  1408 ;; Auto vars:     Size  Location     Type
  1409 ;;  exp1            1   48[COMRAM] unsigned char 
  1410 ;;  sign1           1   47[COMRAM] unsigned char 
  1411 ;; Return value:  Size  Location     Type
  1412 ;;                  4   39[COMRAM] long 
  1413 ;; Registers used:
  1414 ;;		wreg, status,2, status,0
  1415 ;; Tracked objects:
  1416 ;;		On entry : 0/0
  1417 ;;		On exit  : 0/0
  1418 ;;		Unchanged: 0/0
  1419 ;; Data sizes:     COMRAM   BANK0   BANK1   BANK2   BANK3   BANK4   BANK5   BANK6   BANK7
  1420 ;;      Params:         4       0       0       0       0       0       0       0       0
  1421 ;;      Locals:         2       0       0       0       0       0       0       0       0
  1422 ;;      Temps:          4       0       0       0       0       0       0       0       0
  1423 ;;      Totals:        10       0       0       0       0       0       0       0       0
  1424 ;;Total ram usage:       10 bytes
  1425 ;; Hardware stack levels used: 1
  1426 ;; This function calls:
  1427 ;;		Nothing
  1428 ;; This function is called by:
  1429 ;;		_main
  1430 ;; This function uses a non-reentrant model
  1431 ;;
  1432                           
  1433                           	psect	text4
  1434  001720                     __ptext4:
  1435                           	callstack 0
  1436  001720                     ___fltol:
  1437                           	callstack 30
  1438  001720  342A               	rlcf	(___fltol@f1+2)^0,w,c
  1439  001722  342B               	rlcf	(___fltol@f1+3)^0,w,c
  1440  001724  6E31               	movwf	___fltol@exp1^0,c
  1441  001726  5031               	movf	___fltol@exp1^0,w,c
  1442  001728  A4D8               	btfss	status,2,c
  1443  00172A  EF99  F00B         	goto	u1161
  1444  00172E  EF9B  F00B         	goto	u1160
  1445  001732                     u1161:
  1446  001732  EFA5  F00B         	goto	l2078
  1447  001736                     u1160:
  1448  001736                     l2074:
  1449  001736  0E00               	movlw	0
  1450  001738  6E28               	movwf	?___fltol^0,c
  1451  00173A  0E00               	movlw	0
  1452  00173C  6E29               	movwf	(?___fltol+1)^0,c
  1453  00173E  0E00               	movlw	0
  1454  001740  6E2A               	movwf	(?___fltol+2)^0,c
  1455  001742  0E00               	movlw	0
  1456  001744  6E2B               	movwf	(?___fltol+3)^0,c
  1457  001746  EF12  F00C         	goto	l482
  1458  00174A                     l2078:
  1459  00174A  C028  F02C         	movff	___fltol@f1,??___fltol
  1460  00174E  C029  F02D         	movff	___fltol@f1+1,??___fltol+1
  1461  001752  C02A  F02E         	movff	___fltol@f1+2,??___fltol+2
  1462  001756  C02B  F02F         	movff	___fltol@f1+3,??___fltol+3
  1463  00175A  0E20               	movlw	32
  1464  00175C  EFB5  F00B         	goto	u1170
  1465  001760                     u1175:
  1466  001760  90D8               	bcf	status,0,c
  1467  001762  322F               	rrcf	(??___fltol+3)^0,f,c
  1468  001764  322E               	rrcf	(??___fltol+2)^0,f,c
  1469  001766  322D               	rrcf	(??___fltol+1)^0,f,c
  1470  001768  322C               	rrcf	??___fltol^0,f,c
  1471  00176A                     u1170:
  1472  00176A  2EE8               	decfsz	wreg,f,c
  1473  00176C  EFB0  F00B         	goto	u1175
  1474  001770  502C               	movf	??___fltol^0,w,c
  1475  001772  6E30               	movwf	___fltol@sign1^0,c
  1476  001774  8E2A               	bsf	(___fltol@f1+2)^0,7,c
  1477  001776  0EFF               	movlw	255
  1478  001778  1628               	andwf	___fltol@f1^0,f,c
  1479  00177A  0EFF               	movlw	255
  1480  00177C  1629               	andwf	(___fltol@f1+1)^0,f,c
  1481  00177E  0EFF               	movlw	255
  1482  001780  162A               	andwf	(___fltol@f1+2)^0,f,c
  1483  001782  0E00               	movlw	0
  1484  001784  162B               	andwf	(___fltol@f1+3)^0,f,c
  1485  001786  0E96               	movlw	150
  1486  001788  5E31               	subwf	___fltol@exp1^0,f,c
  1487  00178A  BE31               	btfsc	___fltol@exp1^0,7,c
  1488  00178C  EFCC  F00B         	goto	u1180
  1489  001790  EFCA  F00B         	goto	u1181
  1490  001794                     u1181:
  1491  001794  EFE2  F00B         	goto	l2098
  1492  001798                     u1180:
  1493  001798  5031               	movf	___fltol@exp1^0,w,c
  1494  00179A  0A80               	xorlw	128
  1495  00179C  0F97               	addlw	151
  1496  00179E  B0D8               	btfsc	status,0,c
  1497  0017A0  EFD4  F00B         	goto	u1191
  1498  0017A4  EFD6  F00B         	goto	u1190
  1499  0017A8                     u1191:
  1500  0017A8  EFD8  F00B         	goto	l2094
  1501  0017AC                     u1190:
  1502  0017AC  EF9B  F00B         	goto	l2074
  1503  0017B0                     l2094:
  1504  0017B0  90D8               	bcf	status,0,c
  1505  0017B2  322B               	rrcf	(___fltol@f1+3)^0,f,c
  1506  0017B4  322A               	rrcf	(___fltol@f1+2)^0,f,c
  1507  0017B6  3229               	rrcf	(___fltol@f1+1)^0,f,c
  1508  0017B8  3228               	rrcf	___fltol@f1^0,f,c
  1509  0017BA  3E31               	incfsz	___fltol@exp1^0,f,c
  1510  0017BC  EFD8  F00B         	goto	l2094
  1511  0017C0  EFFA  F00B         	goto	l2108
  1512  0017C4                     l2098:
  1513  0017C4  0E1F               	movlw	31
  1514  0017C6  6431               	cpfsgt	___fltol@exp1^0,c
  1515  0017C8  EFE8  F00B         	goto	u1201
  1516  0017CC  EFEA  F00B         	goto	u1200
  1517  0017D0                     u1201:
  1518  0017D0  EFF2  F00B         	goto	l2106
  1519  0017D4                     u1200:
  1520  0017D4  EF9B  F00B         	goto	l2074
  1521  0017D8                     l2104:
  1522  0017D8  90D8               	bcf	status,0,c
  1523  0017DA  3628               	rlcf	___fltol@f1^0,f,c
  1524  0017DC  3629               	rlcf	(___fltol@f1+1)^0,f,c
  1525  0017DE  362A               	rlcf	(___fltol@f1+2)^0,f,c
  1526  0017E0  362B               	rlcf	(___fltol@f1+3)^0,f,c
  1527  0017E2  0631               	decf	___fltol@exp1^0,f,c
  1528  0017E4                     l2106:
  1529  0017E4  5031               	movf	___fltol@exp1^0,w,c
  1530  0017E6  A4D8               	btfss	status,2,c
  1531  0017E8  EFF8  F00B         	goto	u1211
  1532  0017EC  EFFA  F00B         	goto	u1210
  1533  0017F0                     u1211:
  1534  0017F0  EFEC  F00B         	goto	l2104
  1535  0017F4                     u1210:
  1536  0017F4                     l2108:
  1537  0017F4  5030               	movf	___fltol@sign1^0,w,c
  1538  0017F6  B4D8               	btfsc	status,2,c
  1539  0017F8  EF00  F00C         	goto	u1221
  1540  0017FC  EF02  F00C         	goto	u1220
  1541  001800                     u1221:
  1542  001800  EF0A  F00C         	goto	l2112
  1543  001804                     u1220:
  1544  001804  1E2B               	comf	(___fltol@f1+3)^0,f,c
  1545  001806  1E2A               	comf	(___fltol@f1+2)^0,f,c
  1546  001808  1E29               	comf	(___fltol@f1+1)^0,f,c
  1547  00180A  6C28               	negf	___fltol@f1^0,c
  1548  00180C  0E00               	movlw	0
  1549  00180E  2229               	addwfc	(___fltol@f1+1)^0,f,c
  1550  001810  222A               	addwfc	(___fltol@f1+2)^0,f,c
  1551  001812  222B               	addwfc	(___fltol@f1+3)^0,f,c
  1552  001814                     l2112:
  1553  001814  C028  F028         	movff	___fltol@f1,?___fltol
  1554  001818  C029  F029         	movff	___fltol@f1+1,?___fltol+1
  1555  00181C  C02A  F02A         	movff	___fltol@f1+2,?___fltol+2
  1556  001820  C02B  F02B         	movff	___fltol@f1+3,?___fltol+3
  1557  001824                     l482:
  1558  001824  0012               	return		;funcret
  1559  001826                     __end_of___fltol:
  1560                           	callstack 0
  1561                           
  1562 ;; *************** function ___flmul *****************
  1563 ;; Defined at:
  1564 ;;		line 8 in file "C:\Program Files\Microchip\xc8\v2.32\pic\sources\c99\common\sprcmul.c"
  1565 ;; Parameters:    Size  Location     Type
  1566 ;;  b               4   14[COMRAM] long 
  1567 ;;  a               4   18[COMRAM] long 
  1568 ;; Auto vars:     Size  Location     Type
  1569 ;;  prod            4   33[COMRAM] struct .
  1570 ;;  grs             4   27[COMRAM] unsigned long 
  1571 ;;  temp            2   37[COMRAM] struct .
  1572 ;;  bexp            1   32[COMRAM] unsigned char 
  1573 ;;  aexp            1   31[COMRAM] unsigned char 
  1574 ;;  sign            1   26[COMRAM] unsigned char 
  1575 ;; Return value:  Size  Location     Type
  1576 ;;                  4   14[COMRAM] unsigned char 
  1577 ;; Registers used:
  1578 ;;		wreg, status,2, status,0, prodl, prodh
  1579 ;; Tracked objects:
  1580 ;;		On entry : 0/0
  1581 ;;		On exit  : 0/0
  1582 ;;		Unchanged: 0/0
  1583 ;; Data sizes:     COMRAM   BANK0   BANK1   BANK2   BANK3   BANK4   BANK5   BANK6   BANK7
  1584 ;;      Params:         8       0       0       0       0       0       0       0       0
  1585 ;;      Locals:        13       0       0       0       0       0       0       0       0
  1586 ;;      Temps:          4       0       0       0       0       0       0       0       0
  1587 ;;      Totals:        25       0       0       0       0       0       0       0       0
  1588 ;;Total ram usage:       25 bytes
  1589 ;; Hardware stack levels used: 1
  1590 ;; This function calls:
  1591 ;;		Nothing
  1592 ;; This function is called by:
  1593 ;;		_main
  1594 ;; This function uses a non-reentrant model
  1595 ;;
  1596                           
  1597                           	psect	text5
  1598  001142                     __ptext5:
  1599                           	callstack 0
  1600  001142                     ___flmul:
  1601                           	callstack 30
  1602  001142  5012               	movf	(___flmul@b+3)^0,w,c
  1603  001144  0B80               	andlw	128
  1604  001146  6E1B               	movwf	___flmul@sign^0,c
  1605  001148  5012               	movf	(___flmul@b+3)^0,w,c
  1606  00114A  2412               	addwf	(___flmul@b+3)^0,w,c
  1607  00114C  6E21               	movwf	___flmul@bexp^0,c
  1608  00114E  AE11               	btfss	(___flmul@b+2)^0,7,c
  1609  001150  EFAC  F008         	goto	u971
  1610  001154  EFAE  F008         	goto	u970
  1611  001158                     u971:
  1612  001158  EFAF  F008         	goto	l1948
  1613  00115C                     u970:
  1614  00115C  8021               	bsf	___flmul@bexp^0,0,c
  1615  00115E                     l1948:
  1616  00115E  5021               	movf	___flmul@bexp^0,w,c
  1617  001160  B4D8               	btfsc	status,2,c
  1618  001162  EFB5  F008         	goto	u981
  1619  001166  EFB7  F008         	goto	u980
  1620  00116A                     u981:
  1621  00116A  EFCA  F008         	goto	l1956
  1622  00116E                     u980:
  1623  00116E  2821               	incf	___flmul@bexp^0,w,c
  1624  001170  A4D8               	btfss	status,2,c
  1625  001172  EFBD  F008         	goto	u991
  1626  001176  EFBF  F008         	goto	u990
  1627  00117A                     u991:
  1628  00117A  EFC7  F008         	goto	l1954
  1629  00117E                     u990:
  1630  00117E  0E00               	movlw	0
  1631  001180  6E0F               	movwf	___flmul@b^0,c
  1632  001182  0E00               	movlw	0
  1633  001184  6E10               	movwf	(___flmul@b+1)^0,c
  1634  001186  0E00               	movlw	0
  1635  001188  6E11               	movwf	(___flmul@b+2)^0,c
  1636  00118A  0E00               	movlw	0
  1637  00118C  6E12               	movwf	(___flmul@b+3)^0,c
  1638  00118E                     l1954:
  1639  00118E  8E11               	bsf	(___flmul@b+2)^0,7,c
  1640  001190  EFD2  F008         	goto	l1958
  1641  001194                     l1956:
  1642  001194  0E00               	movlw	0
  1643  001196  6E0F               	movwf	___flmul@b^0,c
  1644  001198  0E00               	movlw	0
  1645  00119A  6E10               	movwf	(___flmul@b+1)^0,c
  1646  00119C  0E00               	movlw	0
  1647  00119E  6E11               	movwf	(___flmul@b+2)^0,c
  1648  0011A0  0E00               	movlw	0
  1649  0011A2  6E12               	movwf	(___flmul@b+3)^0,c
  1650  0011A4                     l1958:
  1651  0011A4  5016               	movf	(___flmul@a+3)^0,w,c
  1652  0011A6  0B80               	andlw	128
  1653  0011A8  1A1B               	xorwf	___flmul@sign^0,f,c
  1654  0011AA  5016               	movf	(___flmul@a+3)^0,w,c
  1655  0011AC  2416               	addwf	(___flmul@a+3)^0,w,c
  1656  0011AE  6E20               	movwf	___flmul@aexp^0,c
  1657  0011B0  AE15               	btfss	(___flmul@a+2)^0,7,c
  1658  0011B2  EFDD  F008         	goto	u1001
  1659  0011B6  EFDF  F008         	goto	u1000
  1660  0011BA                     u1001:
  1661  0011BA  EFE0  F008         	goto	l1966
  1662  0011BE                     u1000:
  1663  0011BE  8020               	bsf	___flmul@aexp^0,0,c
  1664  0011C0                     l1966:
  1665  0011C0  5020               	movf	___flmul@aexp^0,w,c
  1666  0011C2  B4D8               	btfsc	status,2,c
  1667  0011C4  EFE6  F008         	goto	u1011
  1668  0011C8  EFE8  F008         	goto	u1010
  1669  0011CC                     u1011:
  1670  0011CC  EFFB  F008         	goto	l1974
  1671  0011D0                     u1010:
  1672  0011D0  2820               	incf	___flmul@aexp^0,w,c
  1673  0011D2  A4D8               	btfss	status,2,c
  1674  0011D4  EFEE  F008         	goto	u1021
  1675  0011D8  EFF0  F008         	goto	u1020
  1676  0011DC                     u1021:
  1677  0011DC  EFF8  F008         	goto	l1972
  1678  0011E0                     u1020:
  1679  0011E0  0E00               	movlw	0
  1680  0011E2  6E13               	movwf	___flmul@a^0,c
  1681  0011E4  0E00               	movlw	0
  1682  0011E6  6E14               	movwf	(___flmul@a+1)^0,c
  1683  0011E8  0E00               	movlw	0
  1684  0011EA  6E15               	movwf	(___flmul@a+2)^0,c
  1685  0011EC  0E00               	movlw	0
  1686  0011EE  6E16               	movwf	(___flmul@a+3)^0,c
  1687  0011F0                     l1972:
  1688  0011F0  8E15               	bsf	(___flmul@a+2)^0,7,c
  1689  0011F2  EF03  F009         	goto	l799
  1690  0011F6                     l1974:
  1691  0011F6  0E00               	movlw	0
  1692  0011F8  6E13               	movwf	___flmul@a^0,c
  1693  0011FA  0E00               	movlw	0
  1694  0011FC  6E14               	movwf	(___flmul@a+1)^0,c
  1695  0011FE  0E00               	movlw	0
  1696  001200  6E15               	movwf	(___flmul@a+2)^0,c
  1697  001202  0E00               	movlw	0
  1698  001204  6E16               	movwf	(___flmul@a+3)^0,c
  1699  001206                     l799:
  1700  001206  5020               	movf	___flmul@aexp^0,w,c
  1701  001208  B4D8               	btfsc	status,2,c
  1702  00120A  EF09  F009         	goto	u1031
  1703  00120E  EF0B  F009         	goto	u1030
  1704  001212                     u1031:
  1705  001212  EF13  F009         	goto	l1978
  1706  001216                     u1030:
  1707  001216  5021               	movf	___flmul@bexp^0,w,c
  1708  001218  A4D8               	btfss	status,2,c
  1709  00121A  EF11  F009         	goto	u1041
  1710  00121E  EF13  F009         	goto	u1040
  1711  001222                     u1041:
  1712  001222  EF1D  F009         	goto	l1982
  1713  001226                     u1040:
  1714  001226                     l1978:
  1715  001226  0E00               	movlw	0
  1716  001228  6E0F               	movwf	?___flmul^0,c
  1717  00122A  0E00               	movlw	0
  1718  00122C  6E10               	movwf	(?___flmul+1)^0,c
  1719  00122E  0E00               	movlw	0
  1720  001230  6E11               	movwf	(?___flmul+2)^0,c
  1721  001232  0E00               	movlw	0
  1722  001234  6E12               	movwf	(?___flmul+3)^0,c
  1723  001236  EFB5  F00A         	goto	l803
  1724  00123A                     l1982:
  1725  00123A  5015               	movf	(___flmul@a+2)^0,w,c
  1726  00123C  020F               	mulwf	___flmul@b^0,c
  1727  00123E  CFF3 F026          	movff	prodl,___flmul@temp
  1728  001242  CFF4 F027          	movff	prodh,___flmul@temp+1
  1729  001246  5026               	movf	___flmul@temp^0,w,c
  1730  001248  6E1C               	movwf	___flmul@grs^0,c
  1731  00124A  6A1D               	clrf	(___flmul@grs+1)^0,c
  1732  00124C  6A1E               	clrf	(___flmul@grs+2)^0,c
  1733  00124E  6A1F               	clrf	(___flmul@grs+3)^0,c
  1734  001250  5027               	movf	(___flmul@temp+1)^0,w,c
  1735  001252  6E22               	movwf	___flmul@prod^0,c
  1736  001254  6A23               	clrf	(___flmul@prod+1)^0,c
  1737  001256  6A24               	clrf	(___flmul@prod+2)^0,c
  1738  001258  6A25               	clrf	(___flmul@prod+3)^0,c
  1739  00125A  5014               	movf	(___flmul@a+1)^0,w,c
  1740  00125C  0210               	mulwf	(___flmul@b+1)^0,c
  1741  00125E  CFF3 F026          	movff	prodl,___flmul@temp
  1742  001262  CFF4 F027          	movff	prodh,___flmul@temp+1
  1743  001266  5026               	movf	___flmul@temp^0,w,c
  1744  001268  261C               	addwf	___flmul@grs^0,f,c
  1745  00126A  0E00               	movlw	0
  1746  00126C  221D               	addwfc	(___flmul@grs+1)^0,f,c
  1747  00126E  221E               	addwfc	(___flmul@grs+2)^0,f,c
  1748  001270  221F               	addwfc	(___flmul@grs+3)^0,f,c
  1749  001272  5027               	movf	(___flmul@temp+1)^0,w,c
  1750  001274  2622               	addwf	___flmul@prod^0,f,c
  1751  001276  0E00               	movlw	0
  1752  001278  2223               	addwfc	(___flmul@prod+1)^0,f,c
  1753  00127A  2224               	addwfc	(___flmul@prod+2)^0,f,c
  1754  00127C  2225               	addwfc	(___flmul@prod+3)^0,f,c
  1755  00127E  5013               	movf	___flmul@a^0,w,c
  1756  001280  0211               	mulwf	(___flmul@b+2)^0,c
  1757  001282  CFF3 F026          	movff	prodl,___flmul@temp
  1758  001286  CFF4 F027          	movff	prodh,___flmul@temp+1
  1759  00128A  5026               	movf	___flmul@temp^0,w,c
  1760  00128C  261C               	addwf	___flmul@grs^0,f,c
  1761  00128E  0E00               	movlw	0
  1762  001290  221D               	addwfc	(___flmul@grs+1)^0,f,c
  1763  001292  221E               	addwfc	(___flmul@grs+2)^0,f,c
  1764  001294  221F               	addwfc	(___flmul@grs+3)^0,f,c
  1765  001296  5027               	movf	(___flmul@temp+1)^0,w,c
  1766  001298  2622               	addwf	___flmul@prod^0,f,c
  1767  00129A  0E00               	movlw	0
  1768  00129C  2223               	addwfc	(___flmul@prod+1)^0,f,c
  1769  00129E  2224               	addwfc	(___flmul@prod+2)^0,f,c
  1770  0012A0  2225               	addwfc	(___flmul@prod+3)^0,f,c
  1771  0012A2  C01E  F01F         	movff	___flmul@grs+2,___flmul@grs+3
  1772  0012A6  C01D  F01E         	movff	___flmul@grs+1,___flmul@grs+2
  1773  0012AA  C01C  F01D         	movff	___flmul@grs,___flmul@grs+1
  1774  0012AE  6A1C               	clrf	___flmul@grs^0,c
  1775  0012B0  5013               	movf	___flmul@a^0,w,c
  1776  0012B2  0210               	mulwf	(___flmul@b+1)^0,c
  1777  0012B4  CFF3 F026          	movff	prodl,___flmul@temp
  1778  0012B8  CFF4 F027          	movff	prodh,___flmul@temp+1
  1779  0012BC  5026               	movf	___flmul@temp^0,w,c
  1780  0012BE  261C               	addwf	___flmul@grs^0,f,c
  1781  0012C0  5027               	movf	(___flmul@temp+1)^0,w,c
  1782  0012C2  221D               	addwfc	(___flmul@grs+1)^0,f,c
  1783  0012C4  0E00               	movlw	0
  1784  0012C6  221E               	addwfc	(___flmul@grs+2)^0,f,c
  1785  0012C8  0E00               	movlw	0
  1786  0012CA  221F               	addwfc	(___flmul@grs+3)^0,f,c
  1787  0012CC  5014               	movf	(___flmul@a+1)^0,w,c
  1788  0012CE  020F               	mulwf	___flmul@b^0,c
  1789  0012D0  CFF3 F026          	movff	prodl,___flmul@temp
  1790  0012D4  CFF4 F027          	movff	prodh,___flmul@temp+1
  1791  0012D8  5026               	movf	___flmul@temp^0,w,c
  1792  0012DA  261C               	addwf	___flmul@grs^0,f,c
  1793  0012DC  5027               	movf	(___flmul@temp+1)^0,w,c
  1794  0012DE  221D               	addwfc	(___flmul@grs+1)^0,f,c
  1795  0012E0  0E00               	movlw	0
  1796  0012E2  221E               	addwfc	(___flmul@grs+2)^0,f,c
  1797  0012E4  0E00               	movlw	0
  1798  0012E6  221F               	addwfc	(___flmul@grs+3)^0,f,c
  1799  0012E8  C01E  F01F         	movff	___flmul@grs+2,___flmul@grs+3
  1800  0012EC  C01D  F01E         	movff	___flmul@grs+1,___flmul@grs+2
  1801  0012F0  C01C  F01D         	movff	___flmul@grs,___flmul@grs+1
  1802  0012F4  6A1C               	clrf	___flmul@grs^0,c
  1803  0012F6  5013               	movf	___flmul@a^0,w,c
  1804  0012F8  020F               	mulwf	___flmul@b^0,c
  1805  0012FA  CFF3 F026          	movff	prodl,___flmul@temp
  1806  0012FE  CFF4 F027          	movff	prodh,___flmul@temp+1
  1807  001302  5026               	movf	___flmul@temp^0,w,c
  1808  001304  261C               	addwf	___flmul@grs^0,f,c
  1809  001306  5027               	movf	(___flmul@temp+1)^0,w,c
  1810  001308  221D               	addwfc	(___flmul@grs+1)^0,f,c
  1811  00130A  0E00               	movlw	0
  1812  00130C  221E               	addwfc	(___flmul@grs+2)^0,f,c
  1813  00130E  0E00               	movlw	0
  1814  001310  221F               	addwfc	(___flmul@grs+3)^0,f,c
  1815  001312  5015               	movf	(___flmul@a+2)^0,w,c
  1816  001314  0210               	mulwf	(___flmul@b+1)^0,c
  1817  001316  CFF3 F026          	movff	prodl,___flmul@temp
  1818  00131A  CFF4 F027          	movff	prodh,___flmul@temp+1
  1819  00131E  5026               	movf	___flmul@temp^0,w,c
  1820  001320  2622               	addwf	___flmul@prod^0,f,c
  1821  001322  5027               	movf	(___flmul@temp+1)^0,w,c
  1822  001324  2223               	addwfc	(___flmul@prod+1)^0,f,c
  1823  001326  0E00               	movlw	0
  1824  001328  2224               	addwfc	(___flmul@prod+2)^0,f,c
  1825  00132A  0E00               	movlw	0
  1826  00132C  2225               	addwfc	(___flmul@prod+3)^0,f,c
  1827  00132E  5014               	movf	(___flmul@a+1)^0,w,c
  1828  001330  0211               	mulwf	(___flmul@b+2)^0,c
  1829  001332  CFF3 F026          	movff	prodl,___flmul@temp
  1830  001336  CFF4 F027          	movff	prodh,___flmul@temp+1
  1831  00133A  5026               	movf	___flmul@temp^0,w,c
  1832  00133C  2622               	addwf	___flmul@prod^0,f,c
  1833  00133E  5027               	movf	(___flmul@temp+1)^0,w,c
  1834  001340  2223               	addwfc	(___flmul@prod+1)^0,f,c
  1835  001342  0E00               	movlw	0
  1836  001344  2224               	addwfc	(___flmul@prod+2)^0,f,c
  1837  001346  0E00               	movlw	0
  1838  001348  2225               	addwfc	(___flmul@prod+3)^0,f,c
  1839  00134A  5015               	movf	(___flmul@a+2)^0,w,c
  1840  00134C  0211               	mulwf	(___flmul@b+2)^0,c
  1841  00134E  CFF3 F026          	movff	prodl,___flmul@temp
  1842  001352  CFF4 F027          	movff	prodh,___flmul@temp+1
  1843  001356  5026               	movf	___flmul@temp^0,w,c
  1844  001358  6E17               	movwf	??___flmul^0,c
  1845  00135A  5027               	movf	(___flmul@temp+1)^0,w,c
  1846  00135C  6E18               	movwf	(??___flmul+1)^0,c
  1847  00135E  6A19               	clrf	(??___flmul+2)^0,c
  1848  001360  6A1A               	clrf	(??___flmul+3)^0,c
  1849  001362  C019  F01A         	movff	??___flmul+2,??___flmul+3
  1850  001366  C018  F019         	movff	??___flmul+1,??___flmul+2
  1851  00136A  C017  F018         	movff	??___flmul,??___flmul+1
  1852  00136E  6A17               	clrf	??___flmul^0,c
  1853  001370  5017               	movf	??___flmul^0,w,c
  1854  001372  2622               	addwf	___flmul@prod^0,f,c
  1855  001374  5018               	movf	(??___flmul+1)^0,w,c
  1856  001376  2223               	addwfc	(___flmul@prod+1)^0,f,c
  1857  001378  5019               	movf	(??___flmul+2)^0,w,c
  1858  00137A  2224               	addwfc	(___flmul@prod+2)^0,f,c
  1859  00137C  501A               	movf	(??___flmul+3)^0,w,c
  1860  00137E  2225               	addwfc	(___flmul@prod+3)^0,f,c
  1861  001380  C01C  F017         	movff	___flmul@grs,??___flmul
  1862  001384  C01D  F018         	movff	___flmul@grs+1,??___flmul+1
  1863  001388  C01E  F019         	movff	___flmul@grs+2,??___flmul+2
  1864  00138C  C01F  F01A         	movff	___flmul@grs+3,??___flmul+3
  1865  001390  0E19               	movlw	25
  1866  001392  EFD0  F009         	goto	u1050
  1867  001396                     u1055:
  1868  001396  90D8               	bcf	status,0,c
  1869  001398  321A               	rrcf	(??___flmul+3)^0,f,c
  1870  00139A  3219               	rrcf	(??___flmul+2)^0,f,c
  1871  00139C  3218               	rrcf	(??___flmul+1)^0,f,c
  1872  00139E  3217               	rrcf	??___flmul^0,f,c
  1873  0013A0                     u1050:
  1874  0013A0  2EE8               	decfsz	wreg,f,c
  1875  0013A2  EFCB  F009         	goto	u1055
  1876  0013A6  5017               	movf	??___flmul^0,w,c
  1877  0013A8  2622               	addwf	___flmul@prod^0,f,c
  1878  0013AA  5018               	movf	(??___flmul+1)^0,w,c
  1879  0013AC  2223               	addwfc	(___flmul@prod+1)^0,f,c
  1880  0013AE  5019               	movf	(??___flmul+2)^0,w,c
  1881  0013B0  2224               	addwfc	(___flmul@prod+2)^0,f,c
  1882  0013B2  501A               	movf	(??___flmul+3)^0,w,c
  1883  0013B4  2225               	addwfc	(___flmul@prod+3)^0,f,c
  1884  0013B6  C01E  F01F         	movff	___flmul@grs+2,___flmul@grs+3
  1885  0013BA  C01D  F01E         	movff	___flmul@grs+1,___flmul@grs+2
  1886  0013BE  C01C  F01D         	movff	___flmul@grs,___flmul@grs+1
  1887  0013C2  6A1C               	clrf	___flmul@grs^0,c
  1888  0013C4  5020               	movf	___flmul@aexp^0,w,c
  1889  0013C6  C021  F017         	movff	___flmul@bexp,??___flmul
  1890  0013CA  6A18               	clrf	(??___flmul+1)^0,c
  1891  0013CC  2617               	addwf	??___flmul^0,f,c
  1892  0013CE  0E00               	movlw	0
  1893  0013D0  2218               	addwfc	(??___flmul+1)^0,f,c
  1894  0013D2  0E82               	movlw	130
  1895  0013D4  2417               	addwf	??___flmul^0,w,c
  1896  0013D6  6E26               	movwf	___flmul@temp^0,c
  1897  0013D8  0EFF               	movlw	255
  1898  0013DA  2018               	addwfc	(??___flmul+1)^0,w,c
  1899  0013DC  6E27               	movwf	(___flmul@temp+1)^0,c
  1900  0013DE  EF06  F00A         	goto	l2030
  1901  0013E2                     l2024:
  1902  0013E2  90D8               	bcf	status,0,c
  1903  0013E4  3622               	rlcf	___flmul@prod^0,f,c
  1904  0013E6  3623               	rlcf	(___flmul@prod+1)^0,f,c
  1905  0013E8  3624               	rlcf	(___flmul@prod+2)^0,f,c
  1906  0013EA  3625               	rlcf	(___flmul@prod+3)^0,f,c
  1907  0013EC  AE1F               	btfss	(___flmul@grs+3)^0,7,c
  1908  0013EE  EFFB  F009         	goto	u1061
  1909  0013F2  EFFD  F009         	goto	u1060
  1910  0013F6                     u1061:
  1911  0013F6  EFFE  F009         	goto	l806
  1912  0013FA                     u1060:
  1913  0013FA  8022               	bsf	___flmul@prod^0,0,c
  1914  0013FC                     l806:
  1915  0013FC  90D8               	bcf	status,0,c
  1916  0013FE  361C               	rlcf	___flmul@grs^0,f,c
  1917  001400  361D               	rlcf	(___flmul@grs+1)^0,f,c
  1918  001402  361E               	rlcf	(___flmul@grs+2)^0,f,c
  1919  001404  361F               	rlcf	(___flmul@grs+3)^0,f,c
  1920  001406  0626               	decf	___flmul@temp^0,f,c
  1921  001408  A0D8               	btfss	status,0,c
  1922  00140A  0627               	decf	(___flmul@temp+1)^0,f,c
  1923  00140C                     l2030:
  1924  00140C  AE24               	btfss	(___flmul@prod+2)^0,7,c
  1925  00140E  EF0B  F00A         	goto	u1071
  1926  001412  EF0D  F00A         	goto	u1070
  1927  001416                     u1071:
  1928  001416  EFF1  F009         	goto	l2024
  1929  00141A                     u1070:
  1930  00141A  0E00               	movlw	0
  1931  00141C  6E20               	movwf	___flmul@aexp^0,c
  1932  00141E  AE1F               	btfss	(___flmul@grs+3)^0,7,c
  1933  001420  EF14  F00A         	goto	u1081
  1934  001424  EF16  F00A         	goto	u1080
  1935  001428                     u1081:
  1936  001428  EF3A  F00A         	goto	l808
  1937  00142C                     u1080:
  1938  00142C  0EFF               	movlw	255
  1939  00142E  141C               	andwf	___flmul@grs^0,w,c
  1940  001430  6E17               	movwf	??___flmul^0,c
  1941  001432  0EFF               	movlw	255
  1942  001434  141D               	andwf	(___flmul@grs+1)^0,w,c
  1943  001436  6E18               	movwf	(??___flmul+1)^0,c
  1944  001438  0EFF               	movlw	255
  1945  00143A  141E               	andwf	(___flmul@grs+2)^0,w,c
  1946  00143C  6E19               	movwf	(??___flmul+2)^0,c
  1947  00143E  0E7F               	movlw	127
  1948  001440  141F               	andwf	(___flmul@grs+3)^0,w,c
  1949  001442  6E1A               	movwf	(??___flmul+3)^0,c
  1950  001444  5017               	movf	??___flmul^0,w,c
  1951  001446  1018               	iorwf	(??___flmul+1)^0,w,c
  1952  001448  1019               	iorwf	(??___flmul+2)^0,w,c
  1953  00144A  101A               	iorwf	(??___flmul+3)^0,w,c
  1954  00144C  B4D8               	btfsc	status,2,c
  1955  00144E  EF2B  F00A         	goto	u1091
  1956  001452  EF2D  F00A         	goto	u1090
  1957  001456                     u1091:
  1958  001456  EF31  F00A         	goto	l809
  1959  00145A                     u1090:
  1960  00145A                     l2038:
  1961  00145A  0E01               	movlw	1
  1962  00145C  6E20               	movwf	___flmul@aexp^0,c
  1963  00145E  EF3A  F00A         	goto	l808
  1964  001462                     l809:
  1965  001462  A022               	btfss	___flmul@prod^0,0,c
  1966  001464  EF36  F00A         	goto	u1101
  1967  001468  EF38  F00A         	goto	u1100
  1968  00146C                     u1101:
  1969  00146C  EF3A  F00A         	goto	l808
  1970  001470                     u1100:
  1971  001470  EF2D  F00A         	goto	l2038
  1972  001474                     l808:
  1973  001474  5020               	movf	___flmul@aexp^0,w,c
  1974  001476  B4D8               	btfsc	status,2,c
  1975  001478  EF40  F00A         	goto	u1111
  1976  00147C  EF42  F00A         	goto	u1110
  1977  001480                     u1111:
  1978  001480  EF66  F00A         	goto	l2050
  1979  001484                     u1110:
  1980  001484  0E01               	movlw	1
  1981  001486  2622               	addwf	___flmul@prod^0,f,c
  1982  001488  0E00               	movlw	0
  1983  00148A  2223               	addwfc	(___flmul@prod+1)^0,f,c
  1984  00148C  2224               	addwfc	(___flmul@prod+2)^0,f,c
  1985  00148E  2225               	addwfc	(___flmul@prod+3)^0,f,c
  1986  001490  A025               	btfss	(___flmul@prod+3)^0,0,c
  1987  001492  EF4D  F00A         	goto	u1121
  1988  001496  EF4F  F00A         	goto	u1120
  1989  00149A                     u1121:
  1990  00149A  EF66  F00A         	goto	l2050
  1991  00149E                     u1120:
  1992  00149E  C022  F017         	movff	___flmul@prod,??___flmul
  1993  0014A2  C023  F018         	movff	___flmul@prod+1,??___flmul+1
  1994  0014A6  C024  F019         	movff	___flmul@prod+2,??___flmul+2
  1995  0014AA  C025  F01A         	movff	___flmul@prod+3,??___flmul+3
  1996  0014AE  341A               	rlcf	(??___flmul+3)^0,w,c
  1997  0014B0  321A               	rrcf	(??___flmul+3)^0,f,c
  1998  0014B2  3219               	rrcf	(??___flmul+2)^0,f,c
  1999  0014B4  3218               	rrcf	(??___flmul+1)^0,f,c
  2000  0014B6  3217               	rrcf	??___flmul^0,f,c
  2001  0014B8  C017  F022         	movff	??___flmul,___flmul@prod
  2002  0014BC  C018  F023         	movff	??___flmul+1,___flmul@prod+1
  2003  0014C0  C019  F024         	movff	??___flmul+2,___flmul@prod+2
  2004  0014C4  C01A  F025         	movff	??___flmul+3,___flmul@prod+3
  2005  0014C8  4A26               	infsnz	___flmul@temp^0,f,c
  2006  0014CA  2A27               	incf	(___flmul@temp+1)^0,f,c
  2007  0014CC                     l2050:
  2008  0014CC  BE27               	btfsc	(___flmul@temp+1)^0,7,c
  2009  0014CE  EF71  F00A         	goto	u1131
  2010  0014D2  5027               	movf	(___flmul@temp+1)^0,w,c
  2011  0014D4  E108               	bnz	u1130
  2012  0014D6  2826               	incf	___flmul@temp^0,w,c
  2013  0014D8  A0D8               	btfss	status,0,c
  2014  0014DA  EF71  F00A         	goto	u1131
  2015  0014DE  EF73  F00A         	goto	u1130
  2016  0014E2                     u1131:
  2017  0014E2  EF7D  F00A         	goto	l2054
  2018  0014E6                     u1130:
  2019  0014E6  0E00               	movlw	0
  2020  0014E8  6E22               	movwf	___flmul@prod^0,c
  2021  0014EA  0E00               	movlw	0
  2022  0014EC  6E23               	movwf	(___flmul@prod+1)^0,c
  2023  0014EE  0E80               	movlw	128
  2024  0014F0  6E24               	movwf	(___flmul@prod+2)^0,c
  2025  0014F2  0E7F               	movlw	127
  2026  0014F4  6E25               	movwf	(___flmul@prod+3)^0,c
  2027  0014F6  EFAB  F00A         	goto	l2066
  2028  0014FA                     l2054:
  2029  0014FA  BE27               	btfsc	(___flmul@temp+1)^0,7,c
  2030  0014FC  EF8A  F00A         	goto	u1140
  2031  001500  5027               	movf	(___flmul@temp+1)^0,w,c
  2032  001502  E106               	bnz	u1141
  2033  001504  0426               	decf	___flmul@temp^0,w,c
  2034  001506  B0D8               	btfsc	status,0,c
  2035  001508  EF88  F00A         	goto	u1141
  2036  00150C  EF8A  F00A         	goto	u1140
  2037  001510                     u1141:
  2038  001510  EF96  F00A         	goto	l816
  2039  001514                     u1140:
  2040  001514  0E00               	movlw	0
  2041  001516  6E22               	movwf	___flmul@prod^0,c
  2042  001518  0E00               	movlw	0
  2043  00151A  6E23               	movwf	(___flmul@prod+1)^0,c
  2044  00151C  0E00               	movlw	0
  2045  00151E  6E24               	movwf	(___flmul@prod+2)^0,c
  2046  001520  0E00               	movlw	0
  2047  001522  6E25               	movwf	(___flmul@prod+3)^0,c
  2048  001524  0E00               	movlw	0
  2049  001526  6E1B               	movwf	___flmul@sign^0,c
  2050  001528  EFAB  F00A         	goto	l2066
  2051  00152C                     l816:
  2052  00152C  C026  F021         	movff	___flmul@temp,___flmul@bexp
  2053  001530  0EFF               	movlw	255
  2054  001532  1622               	andwf	___flmul@prod^0,f,c
  2055  001534  0EFF               	movlw	255
  2056  001536  1623               	andwf	(___flmul@prod+1)^0,f,c
  2057  001538  0E7F               	movlw	127
  2058  00153A  1624               	andwf	(___flmul@prod+2)^0,f,c
  2059  00153C  0E00               	movlw	0
  2060  00153E  1625               	andwf	(___flmul@prod+3)^0,f,c
  2061  001540  A021               	btfss	___flmul@bexp^0,0,c
  2062  001542  EFA5  F00A         	goto	u1151
  2063  001546  EFA7  F00A         	goto	u1150
  2064  00154A                     u1151:
  2065  00154A  EFA8  F00A         	goto	l2064
  2066  00154E                     u1150:
  2067  00154E  8E24               	bsf	(___flmul@prod+2)^0,7,c
  2068  001550                     l2064:
  2069  001550  90D8               	bcf	status,0,c
  2070  001552  3021               	rrcf	___flmul@bexp^0,w,c
  2071  001554  6E25               	movwf	(___flmul@prod+3)^0,c
  2072  001556                     l2066:
  2073  001556  501B               	movf	___flmul@sign^0,w,c
  2074  001558  1225               	iorwf	(___flmul@prod+3)^0,f,c
  2075  00155A  C022  F00F         	movff	___flmul@prod,?___flmul
  2076  00155E  C023  F010         	movff	___flmul@prod+1,?___flmul+1
  2077  001562  C024  F011         	movff	___flmul@prod+2,?___flmul+2
  2078  001566  C025  F012         	movff	___flmul@prod+3,?___flmul+3
  2079  00156A                     l803:
  2080  00156A  0012               	return		;funcret
  2081  00156C                     __end_of___flmul:
  2082                           	callstack 0
  2083                           
  2084 ;; *************** function _OpenXLCD *****************
  2085 ;; Defined at:
  2086 ;;		line 41 in file "nxlcd.c"
  2087 ;; Parameters:    Size  Location     Type
  2088 ;;  lcdtype         1    wreg     unsigned char 
  2089 ;; Auto vars:     Size  Location     Type
  2090 ;;  lcdtype         1    1[COMRAM] unsigned char 
  2091 ;; Return value:  Size  Location     Type
  2092 ;;                  1    wreg      void 
  2093 ;; Registers used:
  2094 ;;		wreg, status,2, status,0, cstack
  2095 ;; Tracked objects:
  2096 ;;		On entry : 0/0
  2097 ;;		On exit  : 0/0
  2098 ;;		Unchanged: 0/0
  2099 ;; Data sizes:     COMRAM   BANK0   BANK1   BANK2   BANK3   BANK4   BANK5   BANK6   BANK7
  2100 ;;      Params:         0       0       0       0       0       0       0       0       0
  2101 ;;      Locals:         1       0       0       0       0       0       0       0       0
  2102 ;;      Temps:          0       0       0       0       0       0       0       0       0
  2103 ;;      Totals:         1       0       0       0       0       0       0       0       0
  2104 ;;Total ram usage:        1 bytes
  2105 ;; Hardware stack levels used: 1
  2106 ;; Hardware stack levels required when called: 2
  2107 ;; This function calls:
  2108 ;;		_BusyXLCD
  2109 ;;		_DelayPORXLCD
  2110 ;;		_DelayXLCD
  2111 ;;		_SetDDRamAddr
  2112 ;;		_WriteCmdXLCD
  2113 ;; This function is called by:
  2114 ;;		_main
  2115 ;; This function uses a non-reentrant model
  2116 ;;
  2117                           
  2118                           	psect	text6
  2119  001826                     __ptext6:
  2120                           	callstack 0
  2121  001826                     _OpenXLCD:
  2122                           	callstack 28
  2123                           
  2124                           ;incstack = 0
  2125                           ;OpenXLCD@lcdtype stored from wreg
  2126  001826  6E02               	movwf	OpenXLCD@lcdtype^0,c
  2127  001828                     
  2128                           ;nxlcd.c: 41: void OpenXLCD(unsigned char lcdtype);nxlcd.c: 42: {;nxlcd.c: 50:         P
      +                          ORTD &= 0x0f;
  2129  001828  0E0F               	movlw	15
  2130  00182A  1683               	andwf	131,f,c	;volatile
  2131                           
  2132                           ;nxlcd.c: 51:         TRISD &= 0x0F;
  2133  00182C  0E0F               	movlw	15
  2134  00182E  1695               	andwf	149,f,c	;volatile
  2135  001830                     
  2136                           ;nxlcd.c: 57:         TRISEbits.TRISE2 = 0;
  2137  001830  9496               	bcf	150,2,c	;volatile
  2138  001832                     
  2139                           ;nxlcd.c: 58:         TRISEbits.TRISE0 = 0;
  2140  001832  9096               	bcf	150,0,c	;volatile
  2141  001834                     
  2142                           ;nxlcd.c: 59:         TRISEbits.TRISE1 = 0;
  2143  001834  9296               	bcf	150,1,c	;volatile
  2144  001836                     
  2145                           ;nxlcd.c: 60:         LATEbits.LATE2 = 0;
  2146  001836  948D               	bcf	141,2,c	;volatile
  2147  001838                     
  2148                           ;nxlcd.c: 61:         LATEbits.LATE0 = 0;
  2149  001838  908D               	bcf	141,0,c	;volatile
  2150  00183A                     
  2151                           ;nxlcd.c: 62:         LATEbits.LATE1 = 0;
  2152  00183A  928D               	bcf	141,1,c	;volatile
  2153  00183C                     
  2154                           ;nxlcd.c: 65:         DelayPORXLCD();
  2155  00183C  EC69  F00D         	call	_DelayPORXLCD	;wreg free
  2156  001840                     
  2157                           ;nxlcd.c: 67:    WriteCmdXLCD(0x30);
  2158  001840  0E30               	movlw	48
  2159  001842  EC11  F00D         	call	_WriteCmdXLCD
  2160  001846                     
  2161                           ;nxlcd.c: 68:    DelayXLCD();
  2162  001846  EC60  F00D         	call	_DelayXLCD	;wreg free
  2163  00184A                     
  2164                           ;nxlcd.c: 69:    DelayXLCD();
  2165  00184A  EC60  F00D         	call	_DelayXLCD	;wreg free
  2166  00184E                     
  2167                           ;nxlcd.c: 70:    WriteCmdXLCD(0x30);
  2168  00184E  0E30               	movlw	48
  2169  001850  EC11  F00D         	call	_WriteCmdXLCD
  2170  001854                     
  2171                           ;nxlcd.c: 71:    DelayXLCD();
  2172  001854  EC60  F00D         	call	_DelayXLCD	;wreg free
  2173  001858                     
  2174                           ;nxlcd.c: 72:    DelayXLCD();
  2175  001858  EC60  F00D         	call	_DelayXLCD	;wreg free
  2176  00185C                     
  2177                           ;nxlcd.c: 73:    WriteCmdXLCD(0x32);
  2178  00185C  0E32               	movlw	50
  2179  00185E  EC11  F00D         	call	_WriteCmdXLCD
  2180  001862                     l1220:
  2181  001862  ECAF  F00C         	call	_BusyXLCD	;wreg free
  2182  001866  0900               	iorlw	0
  2183  001868  A4D8               	btfss	status,2,c
  2184  00186A  EF39  F00C         	goto	u211
  2185  00186E  EF3B  F00C         	goto	u210
  2186  001872                     u211:
  2187  001872  EF31  F00C         	goto	l1220
  2188  001876                     u210:
  2189  001876                     l1222:
  2190  001876  ECAF  F00C         	call	_BusyXLCD	;wreg free
  2191  00187A  0900               	iorlw	0
  2192  00187C  A4D8               	btfss	status,2,c
  2193  00187E  EF43  F00C         	goto	u221
  2194  001882  EF45  F00C         	goto	u220
  2195  001886                     u221:
  2196  001886  EF3B  F00C         	goto	l1222
  2197  00188A                     u220:
  2198  00188A                     
  2199                           ;nxlcd.c: 80:         WriteCmdXLCD(lcdtype);
  2200  00188A  5002               	movf	OpenXLCD@lcdtype^0,w,c
  2201  00188C  EC11  F00D         	call	_WriteCmdXLCD
  2202  001890                     l1226:
  2203  001890  ECAF  F00C         	call	_BusyXLCD	;wreg free
  2204  001894  0900               	iorlw	0
  2205  001896  A4D8               	btfss	status,2,c
  2206  001898  EF50  F00C         	goto	u231
  2207  00189C  EF52  F00C         	goto	u230
  2208  0018A0                     u231:
  2209  0018A0  EF48  F00C         	goto	l1226
  2210  0018A4                     u230:
  2211  0018A4                     
  2212                           ;nxlcd.c: 84:         WriteCmdXLCD(0b00001011&0b00001101&0b00001110);
  2213  0018A4  0E08               	movlw	8
  2214  0018A6  EC11  F00D         	call	_WriteCmdXLCD
  2215  0018AA                     l1230:
  2216  0018AA  ECAF  F00C         	call	_BusyXLCD	;wreg free
  2217  0018AE  0900               	iorlw	0
  2218  0018B0  A4D8               	btfss	status,2,c
  2219  0018B2  EF5D  F00C         	goto	u241
  2220  0018B6  EF5F  F00C         	goto	u240
  2221  0018BA                     u241:
  2222  0018BA  EF55  F00C         	goto	l1230
  2223  0018BE                     u240:
  2224  0018BE                     
  2225                           ;nxlcd.c: 86:         WriteCmdXLCD(0b00001111&0b00001111&0b00001111);
  2226  0018BE  0E0F               	movlw	15
  2227  0018C0  EC11  F00D         	call	_WriteCmdXLCD
  2228  0018C4                     l1234:
  2229  0018C4  ECAF  F00C         	call	_BusyXLCD	;wreg free
  2230  0018C8  0900               	iorlw	0
  2231  0018CA  A4D8               	btfss	status,2,c
  2232  0018CC  EF6A  F00C         	goto	u251
  2233  0018D0  EF6C  F00C         	goto	u250
  2234  0018D4                     u251:
  2235  0018D4  EF62  F00C         	goto	l1234
  2236  0018D8                     u250:
  2237  0018D8                     
  2238                           ;nxlcd.c: 90:         WriteCmdXLCD(0x01);
  2239  0018D8  0E01               	movlw	1
  2240  0018DA  EC11  F00D         	call	_WriteCmdXLCD
  2241  0018DE                     l1238:
  2242  0018DE  ECAF  F00C         	call	_BusyXLCD	;wreg free
  2243  0018E2  0900               	iorlw	0
  2244  0018E4  A4D8               	btfss	status,2,c
  2245  0018E6  EF77  F00C         	goto	u261
  2246  0018EA  EF79  F00C         	goto	u260
  2247  0018EE                     u261:
  2248  0018EE  EF6F  F00C         	goto	l1238
  2249  0018F2                     u260:
  2250  0018F2                     
  2251                           ;nxlcd.c: 94:         WriteCmdXLCD(0b00000100);
  2252  0018F2  0E04               	movlw	4
  2253  0018F4  EC11  F00D         	call	_WriteCmdXLCD
  2254  0018F8                     l1242:
  2255  0018F8  ECAF  F00C         	call	_BusyXLCD	;wreg free
  2256  0018FC  0900               	iorlw	0
  2257  0018FE  A4D8               	btfss	status,2,c
  2258  001900  EF84  F00C         	goto	u271
  2259  001904  EF86  F00C         	goto	u270
  2260  001908                     u271:
  2261  001908  EF7C  F00C         	goto	l1242
  2262  00190C                     u270:
  2263  00190C                     
  2264                           ;nxlcd.c: 98:         SetDDRamAddr(0x80);
  2265  00190C  0E80               	movlw	128
  2266  00190E  ECD2  F00C         	call	_SetDDRamAddr
  2267  001912  0012               	return		;funcret
  2268  001914                     __end_of_OpenXLCD:
  2269                           	callstack 0
  2270                           
  2271 ;; *************** function _SetDDRamAddr *****************
  2272 ;; Defined at:
  2273 ;;		line 171 in file "nxlcd.c"
  2274 ;; Parameters:    Size  Location     Type
  2275 ;;  DDaddr          1    wreg     unsigned char 
  2276 ;; Auto vars:     Size  Location     Type
  2277 ;;  DDaddr          1    0[COMRAM] unsigned char 
  2278 ;; Return value:  Size  Location     Type
  2279 ;;                  1    wreg      void 
  2280 ;; Registers used:
  2281 ;;		wreg, status,2, status,0, cstack
  2282 ;; Tracked objects:
  2283 ;;		On entry : 0/0
  2284 ;;		On exit  : 0/0
  2285 ;;		Unchanged: 0/0
  2286 ;; Data sizes:     COMRAM   BANK0   BANK1   BANK2   BANK3   BANK4   BANK5   BANK6   BANK7
  2287 ;;      Params:         0       0       0       0       0       0       0       0       0
  2288 ;;      Locals:         1       0       0       0       0       0       0       0       0
  2289 ;;      Temps:          0       0       0       0       0       0       0       0       0
  2290 ;;      Totals:         1       0       0       0       0       0       0       0       0
  2291 ;;Total ram usage:        1 bytes
  2292 ;; Hardware stack levels used: 1
  2293 ;; Hardware stack levels required when called: 1
  2294 ;; This function calls:
  2295 ;;		_DelayFor18TCY
  2296 ;; This function is called by:
  2297 ;;		_OpenXLCD
  2298 ;; This function uses a non-reentrant model
  2299 ;;
  2300                           
  2301                           	psect	text7
  2302  0019A4                     __ptext7:
  2303                           	callstack 0
  2304  0019A4                     _SetDDRamAddr:
  2305                           	callstack 28
  2306                           
  2307                           ;incstack = 0
  2308                           ;SetDDRamAddr@DDaddr stored from wreg
  2309  0019A4  6E01               	movwf	SetDDRamAddr@DDaddr^0,c
  2310  0019A6                     
  2311                           ;nxlcd.c: 171: void SetDDRamAddr(unsigned char DDaddr);nxlcd.c: 172: {;nxlcd.c: 186:    
      +                               TRISD &= 0x0f;
  2312  0019A6  0E0F               	movlw	15
  2313  0019A8  1695               	andwf	149,f,c	;volatile
  2314                           
  2315                           ;nxlcd.c: 187:         PORTD &= 0x0f;
  2316  0019AA  0E0F               	movlw	15
  2317  0019AC  1683               	andwf	131,f,c	;volatile
  2318                           
  2319                           ;nxlcd.c: 188:         PORTD |= ((DDaddr | 0b10000000) & 0xf0);
  2320  0019AE  5001               	movf	SetDDRamAddr@DDaddr^0,w,c
  2321  0019B0  0980               	iorlw	128
  2322  0019B2  0BF0               	andlw	240
  2323  0019B4  1283               	iorwf	131,f,c	;volatile
  2324  0019B6                     
  2325                           ;nxlcd.c: 194:         LATEbits.LATE2 = 0;
  2326  0019B6  948D               	bcf	141,2,c	;volatile
  2327  0019B8                     
  2328                           ;nxlcd.c: 195:         LATEbits.LATE0 = 0;
  2329  0019B8  908D               	bcf	141,0,c	;volatile
  2330  0019BA                     
  2331                           ;nxlcd.c: 196:         DelayFor18TCY();
  2332  0019BA  EC78  F00D         	call	_DelayFor18TCY	;wreg free
  2333  0019BE                     
  2334                           ;nxlcd.c: 197:         LATEbits.LATE1 = 1;
  2335  0019BE  828D               	bsf	141,1,c	;volatile
  2336  0019C0                     
  2337                           ;nxlcd.c: 198:         DelayFor18TCY();
  2338  0019C0  EC78  F00D         	call	_DelayFor18TCY	;wreg free
  2339  0019C4                     
  2340                           ;nxlcd.c: 199:         LATEbits.LATE1 = 0;
  2341  0019C4  928D               	bcf	141,1,c	;volatile
  2342                           
  2343                           ;nxlcd.c: 201:         PORTD &= 0x0f;
  2344  0019C6  0E0F               	movlw	15
  2345  0019C8  1683               	andwf	131,f,c	;volatile
  2346                           
  2347                           ;nxlcd.c: 202:         PORTD |= ((DDaddr<<4)&0xf0);
  2348  0019CA  3801               	swapf	SetDDRamAddr@DDaddr^0,w,c
  2349  0019CC  0BF0               	andlw	240
  2350  0019CE  0BF0               	andlw	240
  2351  0019D0  1283               	iorwf	131,f,c	;volatile
  2352  0019D2                     
  2353                           ;nxlcd.c: 207:         DelayFor18TCY();
  2354  0019D2  EC78  F00D         	call	_DelayFor18TCY	;wreg free
  2355  0019D6                     
  2356                           ;nxlcd.c: 208:         LATEbits.LATE1 = 1;
  2357  0019D6  828D               	bsf	141,1,c	;volatile
  2358  0019D8                     
  2359                           ;nxlcd.c: 209:         DelayFor18TCY();
  2360  0019D8  EC78  F00D         	call	_DelayFor18TCY	;wreg free
  2361  0019DC                     
  2362                           ;nxlcd.c: 210:         LATEbits.LATE1 = 0;
  2363  0019DC  928D               	bcf	141,1,c	;volatile
  2364                           
  2365                           ;nxlcd.c: 212:         TRISD |= 0xf0;
  2366  0019DE  0EF0               	movlw	240
  2367  0019E0  1295               	iorwf	149,f,c	;volatile
  2368  0019E2  0012               	return		;funcret
  2369  0019E4                     __end_of_SetDDRamAddr:
  2370                           	callstack 0
  2371                           
  2372 ;; *************** function _DelayXLCD *****************
  2373 ;; Defined at:
  2374 ;;		line 22 in file "nxlcd.c"
  2375 ;; Parameters:    Size  Location     Type
  2376 ;;		None
  2377 ;; Auto vars:     Size  Location     Type
  2378 ;;		None
  2379 ;; Return value:  Size  Location     Type
  2380 ;;                  1    wreg      void 
  2381 ;; Registers used:
  2382 ;;		wreg
  2383 ;; Tracked objects:
  2384 ;;		On entry : 0/0
  2385 ;;		On exit  : 0/0
  2386 ;;		Unchanged: 0/0
  2387 ;; Data sizes:     COMRAM   BANK0   BANK1   BANK2   BANK3   BANK4   BANK5   BANK6   BANK7
  2388 ;;      Params:         0       0       0       0       0       0       0       0       0
  2389 ;;      Locals:         0       0       0       0       0       0       0       0       0
  2390 ;;      Temps:          1       0       0       0       0       0       0       0       0
  2391 ;;      Totals:         1       0       0       0       0       0       0       0       0
  2392 ;;Total ram usage:        1 bytes
  2393 ;; Hardware stack levels used: 1
  2394 ;; This function calls:
  2395 ;;		Nothing
  2396 ;; This function is called by:
  2397 ;;		_OpenXLCD
  2398 ;; This function uses a non-reentrant model
  2399 ;;
  2400                           
  2401                           	psect	text8
  2402  001AC0                     __ptext8:
  2403                           	callstack 0
  2404  001AC0                     _DelayXLCD:
  2405                           	callstack 29
  2406  001AC0                     
  2407                           ;nxlcd.c: 24:     _delay((unsigned long)((5)*(20000000/4000.0)));
  2408  001AC0  0E21               	movlw	33
  2409  001AC2  6E01               	movwf	??_DelayXLCD^0,c
  2410  001AC4  0E76               	movlw	118
  2411  001AC6                     u1437:
  2412  001AC6  2EE8               	decfsz	wreg,f,c
  2413  001AC8  D7FE               	bra	u1437
  2414  001ACA  2E01               	decfsz	??_DelayXLCD^0,f,c
  2415  001ACC  D7FC               	bra	u1437
  2416  001ACE  D000               	nop2	
  2417  001AD0  0012               	return		;funcret
  2418  001AD2                     __end_of_DelayXLCD:
  2419                           	callstack 0
  2420                           
  2421 ;; *************** function _DelayPORXLCD *****************
  2422 ;; Defined at:
  2423 ;;		line 17 in file "nxlcd.c"
  2424 ;; Parameters:    Size  Location     Type
  2425 ;;		None
  2426 ;; Auto vars:     Size  Location     Type
  2427 ;;		None
  2428 ;; Return value:  Size  Location     Type
  2429 ;;                  1    wreg      void 
  2430 ;; Registers used:
  2431 ;;		wreg
  2432 ;; Tracked objects:
  2433 ;;		On entry : 0/0
  2434 ;;		On exit  : 0/0
  2435 ;;		Unchanged: 0/0
  2436 ;; Data sizes:     COMRAM   BANK0   BANK1   BANK2   BANK3   BANK4   BANK5   BANK6   BANK7
  2437 ;;      Params:         0       0       0       0       0       0       0       0       0
  2438 ;;      Locals:         0       0       0       0       0       0       0       0       0
  2439 ;;      Temps:          1       0       0       0       0       0       0       0       0
  2440 ;;      Totals:         1       0       0       0       0       0       0       0       0
  2441 ;;Total ram usage:        1 bytes
  2442 ;; Hardware stack levels used: 1
  2443 ;; This function calls:
  2444 ;;		Nothing
  2445 ;; This function is called by:
  2446 ;;		_OpenXLCD
  2447 ;; This function uses a non-reentrant model
  2448 ;;
  2449                           
  2450                           	psect	text9
  2451  001AD2                     __ptext9:
  2452                           	callstack 0
  2453  001AD2                     _DelayPORXLCD:
  2454                           	callstack 29
  2455  001AD2                     
  2456                           ;nxlcd.c: 19:     _delay((unsigned long)((15)*(20000000/4000.0)));
  2457  001AD2  0E62               	movlw	98
  2458  001AD4  6E01               	movwf	??_DelayPORXLCD^0,c
  2459  001AD6  0E66               	movlw	102
  2460  001AD8                     u1447:
  2461  001AD8  2EE8               	decfsz	wreg,f,c
  2462  001ADA  D7FE               	bra	u1447
  2463  001ADC  2E01               	decfsz	??_DelayPORXLCD^0,f,c
  2464  001ADE  D7FC               	bra	u1447
  2465  001AE0  0012               	return		;funcret
  2466  001AE2                     __end_of_DelayPORXLCD:
  2467                           	callstack 0
  2468                           
  2469 ;; *************** function _BusyXLCD *****************
  2470 ;; Defined at:
  2471 ;;		line 227 in file "nxlcd.c"
  2472 ;; Parameters:    Size  Location     Type
  2473 ;;		None
  2474 ;; Auto vars:     Size  Location     Type
  2475 ;;		None
  2476 ;; Return value:  Size  Location     Type
  2477 ;;                  1    wreg      unsigned char 
  2478 ;; Registers used:
  2479 ;;		wreg, cstack
  2480 ;; Tracked objects:
  2481 ;;		On entry : 0/0
  2482 ;;		On exit  : 0/0
  2483 ;;		Unchanged: 0/0
  2484 ;; Data sizes:     COMRAM   BANK0   BANK1   BANK2   BANK3   BANK4   BANK5   BANK6   BANK7
  2485 ;;      Params:         0       0       0       0       0       0       0       0       0
  2486 ;;      Locals:         0       0       0       0       0       0       0       0       0
  2487 ;;      Temps:          0       0       0       0       0       0       0       0       0
  2488 ;;      Totals:         0       0       0       0       0       0       0       0       0
  2489 ;;Total ram usage:        0 bytes
  2490 ;; Hardware stack levels used: 1
  2491 ;; Hardware stack levels required when called: 1
  2492 ;; This function calls:
  2493 ;;		_DelayFor18TCY
  2494 ;; This function is called by:
  2495 ;;		_OpenXLCD
  2496 ;;		_putsXLCD
  2497 ;;		_putrsXLCD
  2498 ;; This function uses a non-reentrant model
  2499 ;;
  2500                           
  2501                           	psect	text10
  2502  00195E                     __ptext10:
  2503                           	callstack 0
  2504  00195E                     _BusyXLCD:
  2505                           	callstack 28
  2506  00195E                     
  2507                           ;nxlcd.c: 229:         LATEbits.LATE2 = 1;
  2508  00195E  848D               	bsf	141,2,c	;volatile
  2509                           
  2510                           ;nxlcd.c: 230:         LATEbits.LATE0 = 0;
  2511  001960  908D               	bcf	141,0,c	;volatile
  2512  001962                     
  2513                           ;nxlcd.c: 231:         DelayFor18TCY();
  2514  001962  EC78  F00D         	call	_DelayFor18TCY	;wreg free
  2515  001966                     
  2516                           ;nxlcd.c: 232:         LATEbits.LATE1 = 1;
  2517  001966  828D               	bsf	141,1,c	;volatile
  2518                           
  2519                           ;nxlcd.c: 233:         DelayFor18TCY();
  2520  001968  EC78  F00D         	call	_DelayFor18TCY	;wreg free
  2521  00196C                     
  2522                           ;nxlcd.c: 249:         if(PORTD&0x80)
  2523  00196C  AE83               	btfss	131,7,c	;volatile
  2524  00196E  EFBB  F00C         	goto	u31
  2525  001972  EFBD  F00C         	goto	u30
  2526  001976                     u31:
  2527  001976  EFC8  F00C         	goto	l150
  2528  00197A                     u30:
  2529  00197A                     
  2530                           ;nxlcd.c: 253:         {;nxlcd.c: 254:                 LATEbits.LATE1 = 0;
  2531  00197A  928D               	bcf	141,1,c	;volatile
  2532  00197C                     
  2533                           ;nxlcd.c: 255:                 DelayFor18TCY();
  2534  00197C  EC78  F00D         	call	_DelayFor18TCY	;wreg free
  2535  001980                     
  2536                           ;nxlcd.c: 256:                 LATEbits.LATE1 = 1;
  2537  001980  828D               	bsf	141,1,c	;volatile
  2538                           
  2539                           ;nxlcd.c: 257:                 DelayFor18TCY();
  2540  001982  EC78  F00D         	call	_DelayFor18TCY	;wreg free
  2541  001986                     
  2542                           ;nxlcd.c: 258:                 LATEbits.LATE1 = 0;
  2543  001986  928D               	bcf	141,1,c	;volatile
  2544  001988                     
  2545                           ;nxlcd.c: 259:                 LATEbits.LATE2 = 0;
  2546  001988  948D               	bcf	141,2,c	;volatile
  2547  00198A                     
  2548                           ;nxlcd.c: 260:                 return 1;
  2549  00198A  0E01               	movlw	1
  2550  00198C  EFD1  F00C         	goto	l151
  2551  001990                     l150:
  2552                           
  2553                           ;nxlcd.c: 263:         {;nxlcd.c: 264:                 LATEbits.LATE1 = 0;
  2554  001990  928D               	bcf	141,1,c	;volatile
  2555  001992                     
  2556                           ;nxlcd.c: 265:                 DelayFor18TCY();
  2557  001992  EC78  F00D         	call	_DelayFor18TCY	;wreg free
  2558  001996                     
  2559                           ;nxlcd.c: 266:                 LATEbits.LATE1 = 1;
  2560  001996  828D               	bsf	141,1,c	;volatile
  2561                           
  2562                           ;nxlcd.c: 267:                 DelayFor18TCY();
  2563  001998  EC78  F00D         	call	_DelayFor18TCY	;wreg free
  2564  00199C                     
  2565                           ;nxlcd.c: 268:                 LATEbits.LATE1 = 0;
  2566  00199C  928D               	bcf	141,1,c	;volatile
  2567  00199E                     
  2568                           ;nxlcd.c: 269:                 LATEbits.LATE2 = 0;
  2569  00199E  948D               	bcf	141,2,c	;volatile
  2570  0019A0                     
  2571                           ;nxlcd.c: 270:                 return 0;
  2572  0019A0  0E00               	movlw	0
  2573  0019A2                     l151:
  2574  0019A2  0012               	return		;funcret
  2575  0019A4                     __end_of_BusyXLCD:
  2576                           	callstack 0
  2577                           
  2578 ;; *************** function _LeTecladoMatricial *****************
  2579 ;; Defined at:
  2580 ;;		line 77 in file "newmain.c"
  2581 ;; Parameters:    Size  Location     Type
  2582 ;;  contador        2    2[COMRAM] int 
  2583 ;; Auto vars:     Size  Location     Type
  2584 ;;  a               2    6[COMRAM] int 
  2585 ;; Return value:  Size  Location     Type
  2586 ;;                  2    2[COMRAM] int 
  2587 ;; Registers used:
  2588 ;;		wreg, status,2, status,0, cstack
  2589 ;; Tracked objects:
  2590 ;;		On entry : 0/0
  2591 ;;		On exit  : 0/0
  2592 ;;		Unchanged: 0/0
  2593 ;; Data sizes:     COMRAM   BANK0   BANK1   BANK2   BANK3   BANK4   BANK5   BANK6   BANK7
  2594 ;;      Params:         2       0       0       0       0       0       0       0       0
  2595 ;;      Locals:         2       0       0       0       0       0       0       0       0
  2596 ;;      Temps:          2       0       0       0       0       0       0       0       0
  2597 ;;      Totals:         6       0       0       0       0       0       0       0       0
  2598 ;;Total ram usage:        6 bytes
  2599 ;; Hardware stack levels used: 1
  2600 ;; Hardware stack levels required when called: 2
  2601 ;; This function calls:
  2602 ;;		_DescobrePosicao
  2603 ;;		_WriteCmdXLCD
  2604 ;;		_WriteDataXLCD
  2605 ;; This function is called by:
  2606 ;;		_main
  2607 ;; This function uses a non-reentrant model
  2608 ;;
  2609                           
  2610                           	psect	text11
  2611  00082A                     __ptext11:
  2612                           	callstack 0
  2613  00082A                     _LeTecladoMatricial:
  2614                           	callstack 28
  2615  00082A                     
  2616                           ;newmain.c: 78:     int a= contador;
  2617  00082A  C003  F007         	movff	LeTecladoMatricial@contador,LeTecladoMatricial@a
  2618  00082E  C004  F008         	movff	LeTecladoMatricial@contador+1,LeTecladoMatricial@a+1
  2619                           
  2620                           ;newmain.c: 79:     while(a == contador){
  2621  000832  EF74  F006         	goto	l1920
  2622  000836                     l47:
  2623                           
  2624                           ;newmain.c: 81:     PORTBbits.RB3 = 0;
  2625  000836  9681               	bcf	129,3,c	;volatile
  2626                           
  2627                           ;newmain.c: 82:     PORTBbits.RB2 = 1;
  2628  000838  8481               	bsf	129,2,c	;volatile
  2629                           
  2630                           ;newmain.c: 83:     PORTBbits.RB0 = 1;
  2631  00083A  8081               	bsf	129,0,c	;volatile
  2632                           
  2633                           ;newmain.c: 84:     PORTBbits.RB1 = 1;
  2634  00083C  8281               	bsf	129,1,c	;volatile
  2635  00083E                     
  2636                           ;newmain.c: 85:     _delay((unsigned long)((100)*(20000000/4000.0)));
  2637  00083E  0E03               	movlw	3
  2638  000840  6E06               	movwf	(??_LeTecladoMatricial+1)^0,c
  2639  000842  0E8A               	movlw	138
  2640  000844  6E05               	movwf	??_LeTecladoMatricial^0,c
  2641  000846  0E56               	movlw	86
  2642  000848                     u1457:
  2643  000848  2EE8               	decfsz	wreg,f,c
  2644  00084A  D7FE               	bra	u1457
  2645  00084C  2E05               	decfsz	??_LeTecladoMatricial^0,f,c
  2646  00084E  D7FC               	bra	u1457
  2647  000850  2E06               	decfsz	(??_LeTecladoMatricial+1)^0,f,c
  2648  000852  D7FA               	bra	u1457
  2649  000854                     
  2650                           ;newmain.c: 88:     if (PORTBbits.RB4 == 0) {
  2651  000854  B881               	btfsc	129,4,c	;volatile
  2652  000856  EF2F  F004         	goto	u781
  2653  00085A  EF31  F004         	goto	u780
  2654  00085E                     u781:
  2655  00085E  EF50  F004         	goto	l48
  2656  000862                     u780:
  2657  000862                     
  2658                           ;newmain.c: 89:         WriteCmdXLCD(DescobrePosicao(contador));
  2659  000862  C003  F001         	movff	LeTecladoMatricial@contador,DescobrePosicao@contador
  2660  000866  C004  F002         	movff	LeTecladoMatricial@contador+1,DescobrePosicao@contador+1
  2661  00086A  EC30  F00D         	call	_DescobrePosicao	;wreg free
  2662  00086E  5001               	movf	?_DescobrePosicao^0,w,c
  2663  000870  EC11  F00D         	call	_WriteCmdXLCD
  2664                           
  2665                           ;newmain.c: 90:         WriteDataXLCD('1');
  2666  000874  0E31               	movlw	49
  2667  000876  ECF2  F00C         	call	_WriteDataXLCD
  2668  00087A                     
  2669                           ;newmain.c: 91:         (contador)++;
  2670  00087A  4A03               	infsnz	LeTecladoMatricial@contador^0,f,c
  2671  00087C  2A04               	incf	(LeTecladoMatricial@contador+1)^0,f,c
  2672  00087E                     
  2673                           ;newmain.c: 92:         _delay((unsigned long)((100)*(20000000/4000.0)));
  2674  00087E  0E03               	movlw	3
  2675  000880  6E06               	movwf	(??_LeTecladoMatricial+1)^0,c
  2676  000882  0E8A               	movlw	138
  2677  000884  6E05               	movwf	??_LeTecladoMatricial^0,c
  2678  000886  0E56               	movlw	86
  2679  000888                     u1467:
  2680  000888  2EE8               	decfsz	wreg,f,c
  2681  00088A  D7FE               	bra	u1467
  2682  00088C  2E05               	decfsz	??_LeTecladoMatricial^0,f,c
  2683  00088E  D7FC               	bra	u1467
  2684  000890  2E06               	decfsz	(??_LeTecladoMatricial+1)^0,f,c
  2685  000892  D7FA               	bra	u1467
  2686  000894                     
  2687                           ;newmain.c: 93:         return 1;
  2688  000894  0E00               	movlw	0
  2689  000896  6E04               	movwf	(?_LeTecladoMatricial+1)^0,c
  2690  000898  0E01               	movlw	1
  2691  00089A  6E03               	movwf	?_LeTecladoMatricial^0,c
  2692  00089C  EF82  F006         	goto	l49
  2693  0008A0                     l48:
  2694                           
  2695                           ;newmain.c: 95:     if (PORTBbits.RB5 == 0) {
  2696  0008A0  BA81               	btfsc	129,5,c	;volatile
  2697  0008A2  EF55  F004         	goto	u791
  2698  0008A6  EF57  F004         	goto	u790
  2699  0008AA                     u791:
  2700  0008AA  EF76  F004         	goto	l50
  2701  0008AE                     u790:
  2702  0008AE                     
  2703                           ;newmain.c: 96:         WriteCmdXLCD(DescobrePosicao(contador));
  2704  0008AE  C003  F001         	movff	LeTecladoMatricial@contador,DescobrePosicao@contador
  2705  0008B2  C004  F002         	movff	LeTecladoMatricial@contador+1,DescobrePosicao@contador+1
  2706  0008B6  EC30  F00D         	call	_DescobrePosicao	;wreg free
  2707  0008BA  5001               	movf	?_DescobrePosicao^0,w,c
  2708  0008BC  EC11  F00D         	call	_WriteCmdXLCD
  2709                           
  2710                           ;newmain.c: 97:         WriteDataXLCD('4');
  2711  0008C0  0E34               	movlw	52
  2712  0008C2  ECF2  F00C         	call	_WriteDataXLCD
  2713  0008C6                     
  2714                           ;newmain.c: 98:         (contador)++;
  2715  0008C6  4A03               	infsnz	LeTecladoMatricial@contador^0,f,c
  2716  0008C8  2A04               	incf	(LeTecladoMatricial@contador+1)^0,f,c
  2717  0008CA                     
  2718                           ;newmain.c: 99:         _delay((unsigned long)((100)*(20000000/4000.0)));
  2719  0008CA  0E03               	movlw	3
  2720  0008CC  6E06               	movwf	(??_LeTecladoMatricial+1)^0,c
  2721  0008CE  0E8A               	movlw	138
  2722  0008D0  6E05               	movwf	??_LeTecladoMatricial^0,c
  2723  0008D2  0E56               	movlw	86
  2724  0008D4                     u1477:
  2725  0008D4  2EE8               	decfsz	wreg,f,c
  2726  0008D6  D7FE               	bra	u1477
  2727  0008D8  2E05               	decfsz	??_LeTecladoMatricial^0,f,c
  2728  0008DA  D7FC               	bra	u1477
  2729  0008DC  2E06               	decfsz	(??_LeTecladoMatricial+1)^0,f,c
  2730  0008DE  D7FA               	bra	u1477
  2731  0008E0                     
  2732                           ;newmain.c: 100:         return 4;
  2733  0008E0  0E00               	movlw	0
  2734  0008E2  6E04               	movwf	(?_LeTecladoMatricial+1)^0,c
  2735  0008E4  0E04               	movlw	4
  2736  0008E6  6E03               	movwf	?_LeTecladoMatricial^0,c
  2737  0008E8  EF82  F006         	goto	l49
  2738  0008EC                     l50:
  2739                           
  2740                           ;newmain.c: 102:     if (PORTBbits.RB6 == 0) {
  2741  0008EC  BC81               	btfsc	129,6,c	;volatile
  2742  0008EE  EF7B  F004         	goto	u801
  2743  0008F2  EF7D  F004         	goto	u800
  2744  0008F6                     u801:
  2745  0008F6  EF9C  F004         	goto	l51
  2746  0008FA                     u800:
  2747  0008FA                     
  2748                           ;newmain.c: 103:         WriteCmdXLCD(DescobrePosicao(contador));
  2749  0008FA  C003  F001         	movff	LeTecladoMatricial@contador,DescobrePosicao@contador
  2750  0008FE  C004  F002         	movff	LeTecladoMatricial@contador+1,DescobrePosicao@contador+1
  2751  000902  EC30  F00D         	call	_DescobrePosicao	;wreg free
  2752  000906  5001               	movf	?_DescobrePosicao^0,w,c
  2753  000908  EC11  F00D         	call	_WriteCmdXLCD
  2754                           
  2755                           ;newmain.c: 104:         WriteDataXLCD('7');
  2756  00090C  0E37               	movlw	55
  2757  00090E  ECF2  F00C         	call	_WriteDataXLCD
  2758  000912                     
  2759                           ;newmain.c: 105:         (contador)++;
  2760  000912  4A03               	infsnz	LeTecladoMatricial@contador^0,f,c
  2761  000914  2A04               	incf	(LeTecladoMatricial@contador+1)^0,f,c
  2762  000916                     
  2763                           ;newmain.c: 106:         _delay((unsigned long)((100)*(20000000/4000.0)));
  2764  000916  0E03               	movlw	3
  2765  000918  6E06               	movwf	(??_LeTecladoMatricial+1)^0,c
  2766  00091A  0E8A               	movlw	138
  2767  00091C  6E05               	movwf	??_LeTecladoMatricial^0,c
  2768  00091E  0E56               	movlw	86
  2769  000920                     u1487:
  2770  000920  2EE8               	decfsz	wreg,f,c
  2771  000922  D7FE               	bra	u1487
  2772  000924  2E05               	decfsz	??_LeTecladoMatricial^0,f,c
  2773  000926  D7FC               	bra	u1487
  2774  000928  2E06               	decfsz	(??_LeTecladoMatricial+1)^0,f,c
  2775  00092A  D7FA               	bra	u1487
  2776  00092C                     
  2777                           ;newmain.c: 107:         return 7;
  2778  00092C  0E00               	movlw	0
  2779  00092E  6E04               	movwf	(?_LeTecladoMatricial+1)^0,c
  2780  000930  0E07               	movlw	7
  2781  000932  6E03               	movwf	?_LeTecladoMatricial^0,c
  2782  000934  EF82  F006         	goto	l49
  2783  000938                     l51:
  2784                           
  2785                           ;newmain.c: 109:     if (PORTBbits.RB7 == 0) {
  2786  000938  BE81               	btfsc	129,7,c	;volatile
  2787  00093A  EFA1  F004         	goto	u811
  2788  00093E  EFA3  F004         	goto	u810
  2789  000942                     u811:
  2790  000942  EFC2  F004         	goto	l1766
  2791  000946                     u810:
  2792  000946                     
  2793                           ;newmain.c: 110:         WriteCmdXLCD(DescobrePosicao(contador));
  2794  000946  C003  F001         	movff	LeTecladoMatricial@contador,DescobrePosicao@contador
  2795  00094A  C004  F002         	movff	LeTecladoMatricial@contador+1,DescobrePosicao@contador+1
  2796  00094E  EC30  F00D         	call	_DescobrePosicao	;wreg free
  2797  000952  5001               	movf	?_DescobrePosicao^0,w,c
  2798  000954  EC11  F00D         	call	_WriteCmdXLCD
  2799                           
  2800                           ;newmain.c: 111:         WriteDataXLCD('0');
  2801  000958  0E30               	movlw	48
  2802  00095A  ECF2  F00C         	call	_WriteDataXLCD
  2803  00095E                     l1758:
  2804                           
  2805                           ;newmain.c: 112:         (contador)++;
  2806  00095E  4A03               	infsnz	LeTecladoMatricial@contador^0,f,c
  2807  000960  2A04               	incf	(LeTecladoMatricial@contador+1)^0,f,c
  2808  000962                     
  2809                           ;newmain.c: 113:         _delay((unsigned long)((100)*(20000000/4000.0)));
  2810  000962  0E03               	movlw	3
  2811  000964  6E06               	movwf	(??_LeTecladoMatricial+1)^0,c
  2812  000966  0E8A               	movlw	138
  2813  000968  6E05               	movwf	??_LeTecladoMatricial^0,c
  2814  00096A  0E56               	movlw	86
  2815  00096C                     u1497:
  2816  00096C  2EE8               	decfsz	wreg,f,c
  2817  00096E  D7FE               	bra	u1497
  2818  000970  2E05               	decfsz	??_LeTecladoMatricial^0,f,c
  2819  000972  D7FC               	bra	u1497
  2820  000974  2E06               	decfsz	(??_LeTecladoMatricial+1)^0,f,c
  2821  000976  D7FA               	bra	u1497
  2822  000978                     l1762:
  2823                           
  2824                           ;newmain.c: 114:         return 0;
  2825  000978  0E00               	movlw	0
  2826  00097A  6E04               	movwf	(?_LeTecladoMatricial+1)^0,c
  2827  00097C  0E00               	movlw	0
  2828  00097E  6E03               	movwf	?_LeTecladoMatricial^0,c
  2829  000980  EF82  F006         	goto	l49
  2830  000984                     l1766:
  2831                           
  2832                           ;newmain.c: 116:     _delay((unsigned long)((100)*(20000000/4000.0)));
  2833  000984  0E03               	movlw	3
  2834  000986  6E06               	movwf	(??_LeTecladoMatricial+1)^0,c
  2835  000988  0E8A               	movlw	138
  2836  00098A  6E05               	movwf	??_LeTecladoMatricial^0,c
  2837  00098C  0E56               	movlw	86
  2838  00098E                     u1507:
  2839  00098E  2EE8               	decfsz	wreg,f,c
  2840  000990  D7FE               	bra	u1507
  2841  000992  2E05               	decfsz	??_LeTecladoMatricial^0,f,c
  2842  000994  D7FC               	bra	u1507
  2843  000996  2E06               	decfsz	(??_LeTecladoMatricial+1)^0,f,c
  2844  000998  D7FA               	bra	u1507
  2845  00099A                     
  2846                           ;newmain.c: 119:     PORTBbits.RB3 = 1;
  2847  00099A  8681               	bsf	129,3,c	;volatile
  2848  00099C                     
  2849                           ;newmain.c: 120:     PORTBbits.RB2 = 0;
  2850  00099C  9481               	bcf	129,2,c	;volatile
  2851  00099E                     
  2852                           ;newmain.c: 121:     PORTBbits.RB0 = 1;
  2853  00099E  8081               	bsf	129,0,c	;volatile
  2854  0009A0                     
  2855                           ;newmain.c: 122:     PORTBbits.RB1 = 1;
  2856  0009A0  8281               	bsf	129,1,c	;volatile
  2857                           
  2858                           ;newmain.c: 123:     _delay((unsigned long)((100)*(20000000/4000.0)));
  2859  0009A2  0E03               	movlw	3
  2860  0009A4  6E06               	movwf	(??_LeTecladoMatricial+1)^0,c
  2861  0009A6  0E8A               	movlw	138
  2862  0009A8  6E05               	movwf	??_LeTecladoMatricial^0,c
  2863  0009AA  0E56               	movlw	86
  2864  0009AC                     u1517:
  2865  0009AC  2EE8               	decfsz	wreg,f,c
  2866  0009AE  D7FE               	bra	u1517
  2867  0009B0  2E05               	decfsz	??_LeTecladoMatricial^0,f,c
  2868  0009B2  D7FC               	bra	u1517
  2869  0009B4  2E06               	decfsz	(??_LeTecladoMatricial+1)^0,f,c
  2870  0009B6  D7FA               	bra	u1517
  2871  0009B8                     
  2872                           ;newmain.c: 126:     if (PORTBbits.RB4 == 0) {
  2873  0009B8  B881               	btfsc	129,4,c	;volatile
  2874  0009BA  EFE1  F004         	goto	u821
  2875  0009BE  EFE3  F004         	goto	u820
  2876  0009C2                     u821:
  2877  0009C2  EF02  F005         	goto	l53
  2878  0009C6                     u820:
  2879  0009C6                     
  2880                           ;newmain.c: 127:         WriteCmdXLCD(DescobrePosicao(contador));
  2881  0009C6  C003  F001         	movff	LeTecladoMatricial@contador,DescobrePosicao@contador
  2882  0009CA  C004  F002         	movff	LeTecladoMatricial@contador+1,DescobrePosicao@contador+1
  2883  0009CE  EC30  F00D         	call	_DescobrePosicao	;wreg free
  2884  0009D2  5001               	movf	?_DescobrePosicao^0,w,c
  2885  0009D4  EC11  F00D         	call	_WriteCmdXLCD
  2886                           
  2887                           ;newmain.c: 128:         WriteDataXLCD('2');
  2888  0009D8  0E32               	movlw	50
  2889  0009DA  ECF2  F00C         	call	_WriteDataXLCD
  2890  0009DE                     
  2891                           ;newmain.c: 129:         (contador)++;
  2892  0009DE  4A03               	infsnz	LeTecladoMatricial@contador^0,f,c
  2893  0009E0  2A04               	incf	(LeTecladoMatricial@contador+1)^0,f,c
  2894  0009E2                     
  2895                           ;newmain.c: 130:         _delay((unsigned long)((100)*(20000000/4000.0)));
  2896  0009E2  0E03               	movlw	3
  2897  0009E4  6E06               	movwf	(??_LeTecladoMatricial+1)^0,c
  2898  0009E6  0E8A               	movlw	138
  2899  0009E8  6E05               	movwf	??_LeTecladoMatricial^0,c
  2900  0009EA  0E56               	movlw	86
  2901  0009EC                     u1527:
  2902  0009EC  2EE8               	decfsz	wreg,f,c
  2903  0009EE  D7FE               	bra	u1527
  2904  0009F0  2E05               	decfsz	??_LeTecladoMatricial^0,f,c
  2905  0009F2  D7FC               	bra	u1527
  2906  0009F4  2E06               	decfsz	(??_LeTecladoMatricial+1)^0,f,c
  2907  0009F6  D7FA               	bra	u1527
  2908  0009F8                     
  2909                           ;newmain.c: 131:         return 2;
  2910  0009F8  0E00               	movlw	0
  2911  0009FA  6E04               	movwf	(?_LeTecladoMatricial+1)^0,c
  2912  0009FC  0E02               	movlw	2
  2913  0009FE  6E03               	movwf	?_LeTecladoMatricial^0,c
  2914  000A00  EF82  F006         	goto	l49
  2915  000A04                     l53:
  2916                           
  2917                           ;newmain.c: 133:     if (PORTBbits.RB5 == 0) {
  2918  000A04  BA81               	btfsc	129,5,c	;volatile
  2919  000A06  EF07  F005         	goto	u831
  2920  000A0A  EF09  F005         	goto	u830
  2921  000A0E                     u831:
  2922  000A0E  EF28  F005         	goto	l54
  2923  000A12                     u830:
  2924  000A12                     
  2925                           ;newmain.c: 134:         WriteCmdXLCD(DescobrePosicao(contador));
  2926  000A12  C003  F001         	movff	LeTecladoMatricial@contador,DescobrePosicao@contador
  2927  000A16  C004  F002         	movff	LeTecladoMatricial@contador+1,DescobrePosicao@contador+1
  2928  000A1A  EC30  F00D         	call	_DescobrePosicao	;wreg free
  2929  000A1E  5001               	movf	?_DescobrePosicao^0,w,c
  2930  000A20  EC11  F00D         	call	_WriteCmdXLCD
  2931                           
  2932                           ;newmain.c: 135:         WriteDataXLCD('5');
  2933  000A24  0E35               	movlw	53
  2934  000A26  ECF2  F00C         	call	_WriteDataXLCD
  2935  000A2A                     
  2936                           ;newmain.c: 136:         (contador)++;
  2937  000A2A  4A03               	infsnz	LeTecladoMatricial@contador^0,f,c
  2938  000A2C  2A04               	incf	(LeTecladoMatricial@contador+1)^0,f,c
  2939  000A2E                     
  2940                           ;newmain.c: 137:         _delay((unsigned long)((100)*(20000000/4000.0)));
  2941  000A2E  0E03               	movlw	3
  2942  000A30  6E06               	movwf	(??_LeTecladoMatricial+1)^0,c
  2943  000A32  0E8A               	movlw	138
  2944  000A34  6E05               	movwf	??_LeTecladoMatricial^0,c
  2945  000A36  0E56               	movlw	86
  2946  000A38                     u1537:
  2947  000A38  2EE8               	decfsz	wreg,f,c
  2948  000A3A  D7FE               	bra	u1537
  2949  000A3C  2E05               	decfsz	??_LeTecladoMatricial^0,f,c
  2950  000A3E  D7FC               	bra	u1537
  2951  000A40  2E06               	decfsz	(??_LeTecladoMatricial+1)^0,f,c
  2952  000A42  D7FA               	bra	u1537
  2953  000A44                     
  2954                           ;newmain.c: 138:         return 5;
  2955  000A44  0E00               	movlw	0
  2956  000A46  6E04               	movwf	(?_LeTecladoMatricial+1)^0,c
  2957  000A48  0E05               	movlw	5
  2958  000A4A  6E03               	movwf	?_LeTecladoMatricial^0,c
  2959  000A4C  EF82  F006         	goto	l49
  2960  000A50                     l54:
  2961                           
  2962                           ;newmain.c: 140:     if (PORTBbits.RB6 == 0) {
  2963  000A50  BC81               	btfsc	129,6,c	;volatile
  2964  000A52  EF2D  F005         	goto	u841
  2965  000A56  EF2F  F005         	goto	u840
  2966  000A5A                     u841:
  2967  000A5A  EF4E  F005         	goto	l55
  2968  000A5E                     u840:
  2969  000A5E                     
  2970                           ;newmain.c: 141:         WriteCmdXLCD(DescobrePosicao(contador));
  2971  000A5E  C003  F001         	movff	LeTecladoMatricial@contador,DescobrePosicao@contador
  2972  000A62  C004  F002         	movff	LeTecladoMatricial@contador+1,DescobrePosicao@contador+1
  2973  000A66  EC30  F00D         	call	_DescobrePosicao	;wreg free
  2974  000A6A  5001               	movf	?_DescobrePosicao^0,w,c
  2975  000A6C  EC11  F00D         	call	_WriteCmdXLCD
  2976                           
  2977                           ;newmain.c: 142:         WriteDataXLCD('8');
  2978  000A70  0E38               	movlw	56
  2979  000A72  ECF2  F00C         	call	_WriteDataXLCD
  2980  000A76                     
  2981                           ;newmain.c: 143:         (contador)++;
  2982  000A76  4A03               	infsnz	LeTecladoMatricial@contador^0,f,c
  2983  000A78  2A04               	incf	(LeTecladoMatricial@contador+1)^0,f,c
  2984  000A7A                     
  2985                           ;newmain.c: 144:         _delay((unsigned long)((100)*(20000000/4000.0)));
  2986  000A7A  0E03               	movlw	3
  2987  000A7C  6E06               	movwf	(??_LeTecladoMatricial+1)^0,c
  2988  000A7E  0E8A               	movlw	138
  2989  000A80  6E05               	movwf	??_LeTecladoMatricial^0,c
  2990  000A82  0E56               	movlw	86
  2991  000A84                     u1547:
  2992  000A84  2EE8               	decfsz	wreg,f,c
  2993  000A86  D7FE               	bra	u1547
  2994  000A88  2E05               	decfsz	??_LeTecladoMatricial^0,f,c
  2995  000A8A  D7FC               	bra	u1547
  2996  000A8C  2E06               	decfsz	(??_LeTecladoMatricial+1)^0,f,c
  2997  000A8E  D7FA               	bra	u1547
  2998  000A90                     
  2999                           ;newmain.c: 145:         return 8;
  3000  000A90  0E00               	movlw	0
  3001  000A92  6E04               	movwf	(?_LeTecladoMatricial+1)^0,c
  3002  000A94  0E08               	movlw	8
  3003  000A96  6E03               	movwf	?_LeTecladoMatricial^0,c
  3004  000A98  EF82  F006         	goto	l49
  3005  000A9C                     l55:
  3006                           
  3007                           ;newmain.c: 147:     if (PORTBbits.RB7 == 0) {
  3008  000A9C  BE81               	btfsc	129,7,c	;volatile
  3009  000A9E  EF53  F005         	goto	u851
  3010  000AA2  EF55  F005         	goto	u850
  3011  000AA6                     u851:
  3012  000AA6  EF65  F005         	goto	l56
  3013  000AAA                     u850:
  3014  000AAA                     
  3015                           ;newmain.c: 148:         WriteCmdXLCD(DescobrePosicao(contador));
  3016  000AAA  C003  F001         	movff	LeTecladoMatricial@contador,DescobrePosicao@contador
  3017  000AAE  C004  F002         	movff	LeTecladoMatricial@contador+1,DescobrePosicao@contador+1
  3018  000AB2  EC30  F00D         	call	_DescobrePosicao	;wreg free
  3019  000AB6  5001               	movf	?_DescobrePosicao^0,w,c
  3020  000AB8  EC11  F00D         	call	_WriteCmdXLCD
  3021                           
  3022                           ;newmain.c: 149:         WriteDataXLCD('0');
  3023  000ABC  0E30               	movlw	48
  3024  000ABE  ECF2  F00C         	call	_WriteDataXLCD
  3025  000AC2                     
  3026                           ;newmain.c: 150:         (contador)++;
  3027  000AC2  4A03               	infsnz	LeTecladoMatricial@contador^0,f,c
  3028  000AC4  2A04               	incf	(LeTecladoMatricial@contador+1)^0,f,c
  3029  000AC6  EFBC  F004         	goto	l1762
  3030  000ACA                     l56:
  3031                           
  3032                           ;newmain.c: 154:     _delay((unsigned long)((100)*(20000000/4000.0)));
  3033  000ACA  0E03               	movlw	3
  3034  000ACC  6E06               	movwf	(??_LeTecladoMatricial+1)^0,c
  3035  000ACE  0E8A               	movlw	138
  3036  000AD0  6E05               	movwf	??_LeTecladoMatricial^0,c
  3037  000AD2  0E56               	movlw	86
  3038  000AD4                     u1557:
  3039  000AD4  2EE8               	decfsz	wreg,f,c
  3040  000AD6  D7FE               	bra	u1557
  3041  000AD8  2E05               	decfsz	??_LeTecladoMatricial^0,f,c
  3042  000ADA  D7FC               	bra	u1557
  3043  000ADC  2E06               	decfsz	(??_LeTecladoMatricial+1)^0,f,c
  3044  000ADE  D7FA               	bra	u1557
  3045  000AE0                     
  3046                           ;newmain.c: 157:     PORTBbits.RB3 = 1;
  3047  000AE0  8681               	bsf	129,3,c	;volatile
  3048  000AE2                     
  3049                           ;newmain.c: 158:     PORTBbits.RB2 = 1;
  3050  000AE2  8481               	bsf	129,2,c	;volatile
  3051  000AE4                     
  3052                           ;newmain.c: 159:     PORTBbits.RB1 = 0;
  3053  000AE4  9281               	bcf	129,1,c	;volatile
  3054  000AE6                     
  3055                           ;newmain.c: 160:     PORTBbits.RB0 = 1;
  3056  000AE6  8081               	bsf	129,0,c	;volatile
  3057                           
  3058                           ;newmain.c: 161:     _delay((unsigned long)((100)*(20000000/4000.0)));
  3059  000AE8  0E03               	movlw	3
  3060  000AEA  6E06               	movwf	(??_LeTecladoMatricial+1)^0,c
  3061  000AEC  0E8A               	movlw	138
  3062  000AEE  6E05               	movwf	??_LeTecladoMatricial^0,c
  3063  000AF0  0E56               	movlw	86
  3064  000AF2                     u1567:
  3065  000AF2  2EE8               	decfsz	wreg,f,c
  3066  000AF4  D7FE               	bra	u1567
  3067  000AF6  2E05               	decfsz	??_LeTecladoMatricial^0,f,c
  3068  000AF8  D7FC               	bra	u1567
  3069  000AFA  2E06               	decfsz	(??_LeTecladoMatricial+1)^0,f,c
  3070  000AFC  D7FA               	bra	u1567
  3071  000AFE                     
  3072                           ;newmain.c: 164:     if (PORTBbits.RB4 == 0) {
  3073  000AFE  B881               	btfsc	129,4,c	;volatile
  3074  000B00  EF84  F005         	goto	u861
  3075  000B04  EF86  F005         	goto	u860
  3076  000B08                     u861:
  3077  000B08  EFA5  F005         	goto	l57
  3078  000B0C                     u860:
  3079  000B0C                     
  3080                           ;newmain.c: 165:         WriteCmdXLCD(DescobrePosicao(contador));
  3081  000B0C  C003  F001         	movff	LeTecladoMatricial@contador,DescobrePosicao@contador
  3082  000B10  C004  F002         	movff	LeTecladoMatricial@contador+1,DescobrePosicao@contador+1
  3083  000B14  EC30  F00D         	call	_DescobrePosicao	;wreg free
  3084  000B18  5001               	movf	?_DescobrePosicao^0,w,c
  3085  000B1A  EC11  F00D         	call	_WriteCmdXLCD
  3086                           
  3087                           ;newmain.c: 166:         WriteDataXLCD('3');
  3088  000B1E  0E33               	movlw	51
  3089  000B20  ECF2  F00C         	call	_WriteDataXLCD
  3090  000B24                     
  3091                           ;newmain.c: 167:         (contador)++;
  3092  000B24  4A03               	infsnz	LeTecladoMatricial@contador^0,f,c
  3093  000B26  2A04               	incf	(LeTecladoMatricial@contador+1)^0,f,c
  3094  000B28                     
  3095                           ;newmain.c: 168:         _delay((unsigned long)((100)*(20000000/4000.0)));
  3096  000B28  0E03               	movlw	3
  3097  000B2A  6E06               	movwf	(??_LeTecladoMatricial+1)^0,c
  3098  000B2C  0E8A               	movlw	138
  3099  000B2E  6E05               	movwf	??_LeTecladoMatricial^0,c
  3100  000B30  0E56               	movlw	86
  3101  000B32                     u1577:
  3102  000B32  2EE8               	decfsz	wreg,f,c
  3103  000B34  D7FE               	bra	u1577
  3104  000B36  2E05               	decfsz	??_LeTecladoMatricial^0,f,c
  3105  000B38  D7FC               	bra	u1577
  3106  000B3A  2E06               	decfsz	(??_LeTecladoMatricial+1)^0,f,c
  3107  000B3C  D7FA               	bra	u1577
  3108  000B3E                     
  3109                           ;newmain.c: 169:         return 3;
  3110  000B3E  0E00               	movlw	0
  3111  000B40  6E04               	movwf	(?_LeTecladoMatricial+1)^0,c
  3112  000B42  0E03               	movlw	3
  3113  000B44  6E03               	movwf	?_LeTecladoMatricial^0,c
  3114  000B46  EF82  F006         	goto	l49
  3115  000B4A                     l57:
  3116                           
  3117                           ;newmain.c: 171:     if (PORTBbits.RB5 == 0) {
  3118  000B4A  BA81               	btfsc	129,5,c	;volatile
  3119  000B4C  EFAA  F005         	goto	u871
  3120  000B50  EFAC  F005         	goto	u870
  3121  000B54                     u871:
  3122  000B54  EFCB  F005         	goto	l58
  3123  000B58                     u870:
  3124  000B58                     
  3125                           ;newmain.c: 172:         WriteCmdXLCD(DescobrePosicao(contador));
  3126  000B58  C003  F001         	movff	LeTecladoMatricial@contador,DescobrePosicao@contador
  3127  000B5C  C004  F002         	movff	LeTecladoMatricial@contador+1,DescobrePosicao@contador+1
  3128  000B60  EC30  F00D         	call	_DescobrePosicao	;wreg free
  3129  000B64  5001               	movf	?_DescobrePosicao^0,w,c
  3130  000B66  EC11  F00D         	call	_WriteCmdXLCD
  3131                           
  3132                           ;newmain.c: 173:         WriteDataXLCD('6');
  3133  000B6A  0E36               	movlw	54
  3134  000B6C  ECF2  F00C         	call	_WriteDataXLCD
  3135  000B70                     
  3136                           ;newmain.c: 174:         (contador)++;
  3137  000B70  4A03               	infsnz	LeTecladoMatricial@contador^0,f,c
  3138  000B72  2A04               	incf	(LeTecladoMatricial@contador+1)^0,f,c
  3139  000B74                     
  3140                           ;newmain.c: 175:         _delay((unsigned long)((100)*(20000000/4000.0)));
  3141  000B74  0E03               	movlw	3
  3142  000B76  6E06               	movwf	(??_LeTecladoMatricial+1)^0,c
  3143  000B78  0E8A               	movlw	138
  3144  000B7A  6E05               	movwf	??_LeTecladoMatricial^0,c
  3145  000B7C  0E56               	movlw	86
  3146  000B7E                     u1587:
  3147  000B7E  2EE8               	decfsz	wreg,f,c
  3148  000B80  D7FE               	bra	u1587
  3149  000B82  2E05               	decfsz	??_LeTecladoMatricial^0,f,c
  3150  000B84  D7FC               	bra	u1587
  3151  000B86  2E06               	decfsz	(??_LeTecladoMatricial+1)^0,f,c
  3152  000B88  D7FA               	bra	u1587
  3153  000B8A                     
  3154                           ;newmain.c: 176:         return 6;
  3155  000B8A  0E00               	movlw	0
  3156  000B8C  6E04               	movwf	(?_LeTecladoMatricial+1)^0,c
  3157  000B8E  0E06               	movlw	6
  3158  000B90  6E03               	movwf	?_LeTecladoMatricial^0,c
  3159  000B92  EF82  F006         	goto	l49
  3160  000B96                     l58:
  3161                           
  3162                           ;newmain.c: 178:     if (PORTBbits.RB6 == 0) {
  3163  000B96  BC81               	btfsc	129,6,c	;volatile
  3164  000B98  EFD0  F005         	goto	u881
  3165  000B9C  EFD2  F005         	goto	u880
  3166  000BA0                     u881:
  3167  000BA0  EFF1  F005         	goto	l59
  3168  000BA4                     u880:
  3169  000BA4                     
  3170                           ;newmain.c: 179:         WriteCmdXLCD(DescobrePosicao(contador));
  3171  000BA4  C003  F001         	movff	LeTecladoMatricial@contador,DescobrePosicao@contador
  3172  000BA8  C004  F002         	movff	LeTecladoMatricial@contador+1,DescobrePosicao@contador+1
  3173  000BAC  EC30  F00D         	call	_DescobrePosicao	;wreg free
  3174  000BB0  5001               	movf	?_DescobrePosicao^0,w,c
  3175  000BB2  EC11  F00D         	call	_WriteCmdXLCD
  3176                           
  3177                           ;newmain.c: 180:         WriteDataXLCD('9');
  3178  000BB6  0E39               	movlw	57
  3179  000BB8  ECF2  F00C         	call	_WriteDataXLCD
  3180  000BBC                     
  3181                           ;newmain.c: 181:         (contador)++;
  3182  000BBC  4A03               	infsnz	LeTecladoMatricial@contador^0,f,c
  3183  000BBE  2A04               	incf	(LeTecladoMatricial@contador+1)^0,f,c
  3184  000BC0                     
  3185                           ;newmain.c: 182:         _delay((unsigned long)((100)*(20000000/4000.0)));
  3186  000BC0  0E03               	movlw	3
  3187  000BC2  6E06               	movwf	(??_LeTecladoMatricial+1)^0,c
  3188  000BC4  0E8A               	movlw	138
  3189  000BC6  6E05               	movwf	??_LeTecladoMatricial^0,c
  3190  000BC8  0E56               	movlw	86
  3191  000BCA                     u1597:
  3192  000BCA  2EE8               	decfsz	wreg,f,c
  3193  000BCC  D7FE               	bra	u1597
  3194  000BCE  2E05               	decfsz	??_LeTecladoMatricial^0,f,c
  3195  000BD0  D7FC               	bra	u1597
  3196  000BD2  2E06               	decfsz	(??_LeTecladoMatricial+1)^0,f,c
  3197  000BD4  D7FA               	bra	u1597
  3198  000BD6                     
  3199                           ;newmain.c: 183:         return 9;
  3200  000BD6  0E00               	movlw	0
  3201  000BD8  6E04               	movwf	(?_LeTecladoMatricial+1)^0,c
  3202  000BDA  0E09               	movlw	9
  3203  000BDC  6E03               	movwf	?_LeTecladoMatricial^0,c
  3204  000BDE  EF82  F006         	goto	l49
  3205  000BE2                     l59:
  3206                           
  3207                           ;newmain.c: 185:     if (PORTBbits.RB7 == 0) {
  3208  000BE2  BE81               	btfsc	129,7,c	;volatile
  3209  000BE4  EFF6  F005         	goto	u891
  3210  000BE8  EFF8  F005         	goto	u890
  3211  000BEC                     u891:
  3212  000BEC  EF06  F006         	goto	l1868
  3213  000BF0                     u890:
  3214  000BF0                     
  3215                           ;newmain.c: 186:         WriteCmdXLCD(DescobrePosicao(contador));
  3216  000BF0  C003  F001         	movff	LeTecladoMatricial@contador,DescobrePosicao@contador
  3217  000BF4  C004  F002         	movff	LeTecladoMatricial@contador+1,DescobrePosicao@contador+1
  3218  000BF8  EC30  F00D         	call	_DescobrePosicao	;wreg free
  3219  000BFC  5001               	movf	?_DescobrePosicao^0,w,c
  3220  000BFE  EC11  F00D         	call	_WriteCmdXLCD
  3221                           
  3222                           ;newmain.c: 187:         WriteDataXLCD('0');
  3223  000C02  0E30               	movlw	48
  3224  000C04  ECF2  F00C         	call	_WriteDataXLCD
  3225  000C08  EFAF  F004         	goto	l1758
  3226  000C0C                     l1868:
  3227                           
  3228                           ;newmain.c: 192:     _delay((unsigned long)((100)*(20000000/4000.0)));
  3229  000C0C  0E03               	movlw	3
  3230  000C0E  6E06               	movwf	(??_LeTecladoMatricial+1)^0,c
  3231  000C10  0E8A               	movlw	138
  3232  000C12  6E05               	movwf	??_LeTecladoMatricial^0,c
  3233  000C14  0E56               	movlw	86
  3234  000C16                     u1607:
  3235  000C16  2EE8               	decfsz	wreg,f,c
  3236  000C18  D7FE               	bra	u1607
  3237  000C1A  2E05               	decfsz	??_LeTecladoMatricial^0,f,c
  3238  000C1C  D7FC               	bra	u1607
  3239  000C1E  2E06               	decfsz	(??_LeTecladoMatricial+1)^0,f,c
  3240  000C20  D7FA               	bra	u1607
  3241  000C22                     
  3242                           ;newmain.c: 195:     PORTBbits.RB3 = 1;
  3243  000C22  8681               	bsf	129,3,c	;volatile
  3244  000C24                     
  3245                           ;newmain.c: 196:     PORTBbits.RB2 = 1;
  3246  000C24  8481               	bsf	129,2,c	;volatile
  3247  000C26                     
  3248                           ;newmain.c: 197:     PORTBbits.RB1 = 1;
  3249  000C26  8281               	bsf	129,1,c	;volatile
  3250  000C28                     
  3251                           ;newmain.c: 198:     PORTBbits.RB0 = 0;
  3252  000C28  9081               	bcf	129,0,c	;volatile
  3253                           
  3254                           ;newmain.c: 199:     _delay((unsigned long)((100)*(20000000/4000.0)));
  3255  000C2A  0E03               	movlw	3
  3256  000C2C  6E06               	movwf	(??_LeTecladoMatricial+1)^0,c
  3257  000C2E  0E8A               	movlw	138
  3258  000C30  6E05               	movwf	??_LeTecladoMatricial^0,c
  3259  000C32  0E56               	movlw	86
  3260  000C34                     u1617:
  3261  000C34  2EE8               	decfsz	wreg,f,c
  3262  000C36  D7FE               	bra	u1617
  3263  000C38  2E05               	decfsz	??_LeTecladoMatricial^0,f,c
  3264  000C3A  D7FC               	bra	u1617
  3265  000C3C  2E06               	decfsz	(??_LeTecladoMatricial+1)^0,f,c
  3266  000C3E  D7FA               	bra	u1617
  3267  000C40                     
  3268                           ;newmain.c: 202:     if (PORTBbits.RB4 == 0) {
  3269  000C40  B881               	btfsc	129,4,c	;volatile
  3270  000C42  EF25  F006         	goto	u901
  3271  000C46  EF27  F006         	goto	u900
  3272  000C4A                     u901:
  3273  000C4A  EF35  F006         	goto	l61
  3274  000C4E                     u900:
  3275  000C4E                     
  3276                           ;newmain.c: 203:         WriteCmdXLCD(DescobrePosicao(contador));
  3277  000C4E  C003  F001         	movff	LeTecladoMatricial@contador,DescobrePosicao@contador
  3278  000C52  C004  F002         	movff	LeTecladoMatricial@contador+1,DescobrePosicao@contador+1
  3279  000C56  EC30  F00D         	call	_DescobrePosicao	;wreg free
  3280  000C5A  5001               	movf	?_DescobrePosicao^0,w,c
  3281  000C5C  EC11  F00D         	call	_WriteCmdXLCD
  3282                           
  3283                           ;newmain.c: 204:         WriteDataXLCD('0');
  3284  000C60  0E30               	movlw	48
  3285  000C62  ECF2  F00C         	call	_WriteDataXLCD
  3286  000C66  EFAF  F004         	goto	l1758
  3287  000C6A                     l61:
  3288                           
  3289                           ;newmain.c: 209:     if (PORTBbits.RB5 == 0) {
  3290  000C6A  BA81               	btfsc	129,5,c	;volatile
  3291  000C6C  EF3A  F006         	goto	u911
  3292  000C70  EF3C  F006         	goto	u910
  3293  000C74                     u911:
  3294  000C74  EF4A  F006         	goto	l62
  3295  000C78                     u910:
  3296  000C78                     
  3297                           ;newmain.c: 210:         WriteCmdXLCD(DescobrePosicao(contador));
  3298  000C78  C003  F001         	movff	LeTecladoMatricial@contador,DescobrePosicao@contador
  3299  000C7C  C004  F002         	movff	LeTecladoMatricial@contador+1,DescobrePosicao@contador+1
  3300  000C80  EC30  F00D         	call	_DescobrePosicao	;wreg free
  3301  000C84  5001               	movf	?_DescobrePosicao^0,w,c
  3302  000C86  EC11  F00D         	call	_WriteCmdXLCD
  3303                           
  3304                           ;newmain.c: 211:         WriteDataXLCD('0');
  3305  000C8A  0E30               	movlw	48
  3306  000C8C  ECF2  F00C         	call	_WriteDataXLCD
  3307  000C90  EFAF  F004         	goto	l1758
  3308  000C94                     l62:
  3309                           
  3310                           ;newmain.c: 216:     if (PORTBbits.RB6 == 0) {
  3311  000C94  BC81               	btfsc	129,6,c	;volatile
  3312  000C96  EF4F  F006         	goto	u921
  3313  000C9A  EF51  F006         	goto	u920
  3314  000C9E                     u921:
  3315  000C9E  EF5F  F006         	goto	l63
  3316  000CA2                     u920:
  3317  000CA2                     
  3318                           ;newmain.c: 217:         WriteCmdXLCD(DescobrePosicao(contador));
  3319  000CA2  C003  F001         	movff	LeTecladoMatricial@contador,DescobrePosicao@contador
  3320  000CA6  C004  F002         	movff	LeTecladoMatricial@contador+1,DescobrePosicao@contador+1
  3321  000CAA  EC30  F00D         	call	_DescobrePosicao	;wreg free
  3322  000CAE  5001               	movf	?_DescobrePosicao^0,w,c
  3323  000CB0  EC11  F00D         	call	_WriteCmdXLCD
  3324                           
  3325                           ;newmain.c: 218:         WriteDataXLCD('0');
  3326  000CB4  0E30               	movlw	48
  3327  000CB6  ECF2  F00C         	call	_WriteDataXLCD
  3328  000CBA  EFAF  F004         	goto	l1758
  3329  000CBE                     l63:
  3330                           
  3331                           ;newmain.c: 223:     if (PORTBbits.RB7 == 0) {
  3332  000CBE  BE81               	btfsc	129,7,c	;volatile
  3333  000CC0  EF64  F006         	goto	u931
  3334  000CC4  EF66  F006         	goto	u930
  3335  000CC8                     u931:
  3336  000CC8  EF74  F006         	goto	l1920
  3337  000CCC                     u930:
  3338  000CCC                     
  3339                           ;newmain.c: 224:         WriteCmdXLCD(DescobrePosicao(contador));
  3340  000CCC  C003  F001         	movff	LeTecladoMatricial@contador,DescobrePosicao@contador
  3341  000CD0  C004  F002         	movff	LeTecladoMatricial@contador+1,DescobrePosicao@contador+1
  3342  000CD4  EC30  F00D         	call	_DescobrePosicao	;wreg free
  3343  000CD8  5001               	movf	?_DescobrePosicao^0,w,c
  3344  000CDA  EC11  F00D         	call	_WriteCmdXLCD
  3345                           
  3346                           ;newmain.c: 225:         WriteDataXLCD('0');
  3347  000CDE  0E30               	movlw	48
  3348  000CE0  ECF2  F00C         	call	_WriteDataXLCD
  3349  000CE4  EFAF  F004         	goto	l1758
  3350  000CE8                     l1920:
  3351                           
  3352                           ;newmain.c: 79:     while(a == contador){
  3353  000CE8  5003               	movf	LeTecladoMatricial@contador^0,w,c
  3354  000CEA  1807               	xorwf	LeTecladoMatricial@a^0,w,c
  3355  000CEC  E109               	bnz	u940
  3356  000CEE  5004               	movf	(LeTecladoMatricial@contador+1)^0,w,c
  3357  000CF0  1808               	xorwf	(LeTecladoMatricial@a+1)^0,w,c
  3358  000CF2  B4D8               	btfsc	status,2,c
  3359  000CF4  EF7E  F006         	goto	u941
  3360  000CF8  EF80  F006         	goto	u940
  3361  000CFC                     u941:
  3362  000CFC  EF1B  F004         	goto	l47
  3363  000D00                     u940:
  3364  000D00  EFBC  F004         	goto	l1762
  3365  000D04                     l49:
  3366  000D04  0012               	return		;funcret
  3367  000D06                     __end_of_LeTecladoMatricial:
  3368                           	callstack 0
  3369                           
  3370 ;; *************** function _WriteDataXLCD *****************
  3371 ;; Defined at:
  3372 ;;		line 449 in file "nxlcd.c"
  3373 ;; Parameters:    Size  Location     Type
  3374 ;;  data            1    wreg     unsigned char 
  3375 ;; Auto vars:     Size  Location     Type
  3376 ;;  data            1    0[COMRAM] unsigned char 
  3377 ;; Return value:  Size  Location     Type
  3378 ;;                  1    wreg      void 
  3379 ;; Registers used:
  3380 ;;		wreg, status,2, status,0, cstack
  3381 ;; Tracked objects:
  3382 ;;		On entry : 0/0
  3383 ;;		On exit  : 0/0
  3384 ;;		Unchanged: 0/0
  3385 ;; Data sizes:     COMRAM   BANK0   BANK1   BANK2   BANK3   BANK4   BANK5   BANK6   BANK7
  3386 ;;      Params:         0       0       0       0       0       0       0       0       0
  3387 ;;      Locals:         1       0       0       0       0       0       0       0       0
  3388 ;;      Temps:          0       0       0       0       0       0       0       0       0
  3389 ;;      Totals:         1       0       0       0       0       0       0       0       0
  3390 ;;Total ram usage:        1 bytes
  3391 ;; Hardware stack levels used: 1
  3392 ;; Hardware stack levels required when called: 1
  3393 ;; This function calls:
  3394 ;;		_DelayFor18TCY
  3395 ;; This function is called by:
  3396 ;;		_LeTecladoMatricial
  3397 ;;		_putsXLCD
  3398 ;;		_putrsXLCD
  3399 ;; This function uses a non-reentrant model
  3400 ;;
  3401                           
  3402                           	psect	text12
  3403  0019E4                     __ptext12:
  3404                           	callstack 0
  3405  0019E4                     _WriteDataXLCD:
  3406                           	callstack 28
  3407                           
  3408                           ;incstack = 0
  3409                           ;WriteDataXLCD@data stored from wreg
  3410  0019E4  6E01               	movwf	WriteDataXLCD@data^0,c
  3411  0019E6                     
  3412                           ;nxlcd.c: 449: void WriteDataXLCD(char data);nxlcd.c: 450: {;nxlcd.c: 464:         TRISD
      +                           &= 0x0f;
  3413  0019E6  0E0F               	movlw	15
  3414  0019E8  1695               	andwf	149,f,c	;volatile
  3415                           
  3416                           ;nxlcd.c: 465:         PORTD &= 0x0f;
  3417  0019EA  0E0F               	movlw	15
  3418  0019EC  1683               	andwf	131,f,c	;volatile
  3419                           
  3420                           ;nxlcd.c: 466:         PORTD |= data&0xf0;
  3421  0019EE  5001               	movf	WriteDataXLCD@data^0,w,c
  3422  0019F0  0BF0               	andlw	240
  3423  0019F2  1283               	iorwf	131,f,c	;volatile
  3424  0019F4                     
  3425                           ;nxlcd.c: 472:         LATEbits.LATE0 = 1;
  3426  0019F4  808D               	bsf	141,0,c	;volatile
  3427  0019F6                     
  3428                           ;nxlcd.c: 473:         LATEbits.LATE2 = 0;
  3429  0019F6  948D               	bcf	141,2,c	;volatile
  3430  0019F8                     
  3431                           ;nxlcd.c: 474:         DelayFor18TCY();
  3432  0019F8  EC78  F00D         	call	_DelayFor18TCY	;wreg free
  3433  0019FC                     
  3434                           ;nxlcd.c: 475:         LATEbits.LATE1 = 1;
  3435  0019FC  828D               	bsf	141,1,c	;volatile
  3436  0019FE                     
  3437                           ;nxlcd.c: 476:         DelayFor18TCY();
  3438  0019FE  EC78  F00D         	call	_DelayFor18TCY	;wreg free
  3439  001A02                     
  3440                           ;nxlcd.c: 477:         LATEbits.LATE1 = 0;
  3441  001A02  928D               	bcf	141,1,c	;volatile
  3442                           
  3443                           ;nxlcd.c: 479:         PORTD &= 0x0f;
  3444  001A04  0E0F               	movlw	15
  3445  001A06  1683               	andwf	131,f,c	;volatile
  3446                           
  3447                           ;nxlcd.c: 480:         PORTD |= ((data<<4)&0xf0);
  3448  001A08  3801               	swapf	WriteDataXLCD@data^0,w,c
  3449  001A0A  0BF0               	andlw	240
  3450  001A0C  0BF0               	andlw	240
  3451  001A0E  1283               	iorwf	131,f,c	;volatile
  3452  001A10                     
  3453                           ;nxlcd.c: 485:         DelayFor18TCY();
  3454  001A10  EC78  F00D         	call	_DelayFor18TCY	;wreg free
  3455  001A14                     
  3456                           ;nxlcd.c: 486:         LATEbits.LATE1 = 1;
  3457  001A14  828D               	bsf	141,1,c	;volatile
  3458  001A16                     
  3459                           ;nxlcd.c: 487:         DelayFor18TCY();
  3460  001A16  EC78  F00D         	call	_DelayFor18TCY	;wreg free
  3461  001A1A                     
  3462                           ;nxlcd.c: 488:         LATEbits.LATE1 = 0;
  3463  001A1A  928D               	bcf	141,1,c	;volatile
  3464                           
  3465                           ;nxlcd.c: 490:         TRISD |= 0xf0;
  3466  001A1C  0EF0               	movlw	240
  3467  001A1E  1295               	iorwf	149,f,c	;volatile
  3468  001A20  0012               	return		;funcret
  3469  001A22                     __end_of_WriteDataXLCD:
  3470                           	callstack 0
  3471                           
  3472 ;; *************** function _WriteCmdXLCD *****************
  3473 ;; Defined at:
  3474 ;;		line 388 in file "nxlcd.c"
  3475 ;; Parameters:    Size  Location     Type
  3476 ;;  cmd             1    wreg     unsigned char 
  3477 ;; Auto vars:     Size  Location     Type
  3478 ;;  cmd             1    0[COMRAM] unsigned char 
  3479 ;; Return value:  Size  Location     Type
  3480 ;;                  1    wreg      void 
  3481 ;; Registers used:
  3482 ;;		wreg, status,2, status,0, cstack
  3483 ;; Tracked objects:
  3484 ;;		On entry : 0/0
  3485 ;;		On exit  : 0/0
  3486 ;;		Unchanged: 0/0
  3487 ;; Data sizes:     COMRAM   BANK0   BANK1   BANK2   BANK3   BANK4   BANK5   BANK6   BANK7
  3488 ;;      Params:         0       0       0       0       0       0       0       0       0
  3489 ;;      Locals:         1       0       0       0       0       0       0       0       0
  3490 ;;      Temps:          0       0       0       0       0       0       0       0       0
  3491 ;;      Totals:         1       0       0       0       0       0       0       0       0
  3492 ;;Total ram usage:        1 bytes
  3493 ;; Hardware stack levels used: 1
  3494 ;; Hardware stack levels required when called: 1
  3495 ;; This function calls:
  3496 ;;		_DelayFor18TCY
  3497 ;; This function is called by:
  3498 ;;		_LeTecladoMatricial
  3499 ;;		_main
  3500 ;;		_OpenXLCD
  3501 ;; This function uses a non-reentrant model
  3502 ;;
  3503                           
  3504                           	psect	text13
  3505  001A22                     __ptext13:
  3506                           	callstack 0
  3507  001A22                     _WriteCmdXLCD:
  3508                           	callstack 29
  3509                           
  3510                           ;incstack = 0
  3511                           ;WriteCmdXLCD@cmd stored from wreg
  3512  001A22  6E01               	movwf	WriteCmdXLCD@cmd^0,c
  3513  001A24                     
  3514                           ;nxlcd.c: 388: void WriteCmdXLCD(unsigned char cmd);nxlcd.c: 389: {;nxlcd.c: 403:       
      +                            TRISD &= 0x0f;
  3515  001A24  0E0F               	movlw	15
  3516  001A26  1695               	andwf	149,f,c	;volatile
  3517                           
  3518                           ;nxlcd.c: 404:         PORTD &= 0x0f;
  3519  001A28  0E0F               	movlw	15
  3520  001A2A  1683               	andwf	131,f,c	;volatile
  3521                           
  3522                           ;nxlcd.c: 405:         PORTD |= cmd&0xf0;
  3523  001A2C  5001               	movf	WriteCmdXLCD@cmd^0,w,c
  3524  001A2E  0BF0               	andlw	240
  3525  001A30  1283               	iorwf	131,f,c	;volatile
  3526  001A32                     
  3527                           ;nxlcd.c: 411:         LATEbits.LATE2 = 0;
  3528  001A32  948D               	bcf	141,2,c	;volatile
  3529  001A34                     
  3530                           ;nxlcd.c: 412:         LATEbits.LATE0 = 0;
  3531  001A34  908D               	bcf	141,0,c	;volatile
  3532  001A36                     
  3533                           ;nxlcd.c: 413:         DelayFor18TCY();
  3534  001A36  EC78  F00D         	call	_DelayFor18TCY	;wreg free
  3535  001A3A                     
  3536                           ;nxlcd.c: 414:         LATEbits.LATE1 = 1;
  3537  001A3A  828D               	bsf	141,1,c	;volatile
  3538  001A3C                     
  3539                           ;nxlcd.c: 415:         DelayFor18TCY();
  3540  001A3C  EC78  F00D         	call	_DelayFor18TCY	;wreg free
  3541  001A40                     
  3542                           ;nxlcd.c: 416:         LATEbits.LATE1 = 0;
  3543  001A40  928D               	bcf	141,1,c	;volatile
  3544                           
  3545                           ;nxlcd.c: 418:         PORTD &= 0x0f;
  3546  001A42  0E0F               	movlw	15
  3547  001A44  1683               	andwf	131,f,c	;volatile
  3548                           
  3549                           ;nxlcd.c: 419:         PORTD |= (cmd<<4)&0xf0;
  3550  001A46  3801               	swapf	WriteCmdXLCD@cmd^0,w,c
  3551  001A48  0BF0               	andlw	240
  3552  001A4A  0BF0               	andlw	240
  3553  001A4C  1283               	iorwf	131,f,c	;volatile
  3554  001A4E                     
  3555                           ;nxlcd.c: 424:         DelayFor18TCY();
  3556  001A4E  EC78  F00D         	call	_DelayFor18TCY	;wreg free
  3557  001A52                     
  3558                           ;nxlcd.c: 425:         LATEbits.LATE1 = 1;
  3559  001A52  828D               	bsf	141,1,c	;volatile
  3560  001A54                     
  3561                           ;nxlcd.c: 426:         DelayFor18TCY();
  3562  001A54  EC78  F00D         	call	_DelayFor18TCY	;wreg free
  3563  001A58                     
  3564                           ;nxlcd.c: 427:         LATEbits.LATE1 = 0;
  3565  001A58  928D               	bcf	141,1,c	;volatile
  3566                           
  3567                           ;nxlcd.c: 429:         TRISD |= 0xf0;
  3568  001A5A  0EF0               	movlw	240
  3569  001A5C  1295               	iorwf	149,f,c	;volatile
  3570  001A5E  0012               	return		;funcret
  3571  001A60                     __end_of_WriteCmdXLCD:
  3572                           	callstack 0
  3573                           
  3574 ;; *************** function _DelayFor18TCY *****************
  3575 ;; Defined at:
  3576 ;;		line 12 in file "nxlcd.c"
  3577 ;; Parameters:    Size  Location     Type
  3578 ;;		None
  3579 ;; Auto vars:     Size  Location     Type
  3580 ;;		None
  3581 ;; Return value:  Size  Location     Type
  3582 ;;                  1    wreg      void 
  3583 ;; Registers used:
  3584 ;;		wreg
  3585 ;; Tracked objects:
  3586 ;;		On entry : 0/0
  3587 ;;		On exit  : 0/0
  3588 ;;		Unchanged: 0/0
  3589 ;; Data sizes:     COMRAM   BANK0   BANK1   BANK2   BANK3   BANK4   BANK5   BANK6   BANK7
  3590 ;;      Params:         0       0       0       0       0       0       0       0       0
  3591 ;;      Locals:         0       0       0       0       0       0       0       0       0
  3592 ;;      Temps:          0       0       0       0       0       0       0       0       0
  3593 ;;      Totals:         0       0       0       0       0       0       0       0       0
  3594 ;;Total ram usage:        0 bytes
  3595 ;; Hardware stack levels used: 1
  3596 ;; This function calls:
  3597 ;;		Nothing
  3598 ;; This function is called by:
  3599 ;;		_SetDDRamAddr
  3600 ;;		_BusyXLCD
  3601 ;;		_WriteCmdXLCD
  3602 ;;		_WriteDataXLCD
  3603 ;;		_SetCGRamAddr
  3604 ;;		_ReadAddrXLCD
  3605 ;;		_ReadDataXLCD
  3606 ;; This function uses a non-reentrant model
  3607 ;;
  3608                           
  3609                           	psect	text14
  3610  001AF0                     __ptext14:
  3611                           	callstack 0
  3612  001AF0                     _DelayFor18TCY:
  3613                           	callstack 28
  3614  001AF0                     
  3615                           ;nxlcd.c: 14:     _delay((unsigned long)((20)*(20000000/4000000.0)));
  3616  001AF0  0E21               	movlw	33
  3617  001AF2                     u1627:
  3618  001AF2  2EE8               	decfsz	wreg,f,c
  3619  001AF4  D7FE               	bra	u1627
  3620  001AF6  F000               	nop	
  3621  001AF8  0012               	return		;funcret
  3622  001AFA                     __end_of_DelayFor18TCY:
  3623                           	callstack 0
  3624                           
  3625 ;; *************** function _DescobrePosicao *****************
  3626 ;; Defined at:
  3627 ;;		line 68 in file "newmain.c"
  3628 ;; Parameters:    Size  Location     Type
  3629 ;;  contador        2    0[COMRAM] int 
  3630 ;; Auto vars:     Size  Location     Type
  3631 ;;		None
  3632 ;; Return value:  Size  Location     Type
  3633 ;;                  2    0[COMRAM] int 
  3634 ;; Registers used:
  3635 ;;		wreg, status,2, status,0
  3636 ;; Tracked objects:
  3637 ;;		On entry : 0/0
  3638 ;;		On exit  : 0/0
  3639 ;;		Unchanged: 0/0
  3640 ;; Data sizes:     COMRAM   BANK0   BANK1   BANK2   BANK3   BANK4   BANK5   BANK6   BANK7
  3641 ;;      Params:         2       0       0       0       0       0       0       0       0
  3642 ;;      Locals:         0       0       0       0       0       0       0       0       0
  3643 ;;      Temps:          0       0       0       0       0       0       0       0       0
  3644 ;;      Totals:         2       0       0       0       0       0       0       0       0
  3645 ;;Total ram usage:        2 bytes
  3646 ;; Hardware stack levels used: 1
  3647 ;; This function calls:
  3648 ;;		Nothing
  3649 ;; This function is called by:
  3650 ;;		_LeTecladoMatricial
  3651 ;; This function uses a non-reentrant model
  3652 ;;
  3653                           
  3654                           	psect	text15
  3655  001A60                     __ptext15:
  3656                           	callstack 0
  3657  001A60                     _DescobrePosicao:
  3658                           	callstack 29
  3659  001A60                     
  3660                           ;newmain.c: 69:     if (contador == 0){
  3661  001A60  5001               	movf	DescobrePosicao@contador^0,w,c
  3662  001A62  1002               	iorwf	(DescobrePosicao@contador+1)^0,w,c
  3663  001A64  A4D8               	btfss	status,2,c
  3664  001A66  EF37  F00D         	goto	u761
  3665  001A6A  EF39  F00D         	goto	u760
  3666  001A6E                     u761:
  3667  001A6E  EF3F  F00D         	goto	l1714
  3668  001A72                     u760:
  3669  001A72                     
  3670                           ;newmain.c: 70:         return 0x87;
  3671  001A72  0E00               	movlw	0
  3672  001A74  6E02               	movwf	(?_DescobrePosicao+1)^0,c
  3673  001A76  0E87               	movlw	135
  3674  001A78  6E01               	movwf	?_DescobrePosicao^0,c
  3675  001A7A  EF4C  F00D         	goto	l42
  3676  001A7E                     l1714:
  3677                           
  3678                           ;newmain.c: 72:     if (contador == 1){
  3679  001A7E  0401               	decf	DescobrePosicao@contador^0,w,c
  3680  001A80  1002               	iorwf	(DescobrePosicao@contador+1)^0,w,c
  3681  001A82  A4D8               	btfss	status,2,c
  3682  001A84  EF46  F00D         	goto	u771
  3683  001A88  EF48  F00D         	goto	u770
  3684  001A8C                     u771:
  3685  001A8C  EF4C  F00D         	goto	l42
  3686  001A90                     u770:
  3687  001A90                     
  3688                           ;newmain.c: 73:          return 0x88;
  3689  001A90  0E00               	movlw	0
  3690  001A92  6E02               	movwf	(?_DescobrePosicao+1)^0,c
  3691  001A94  0E88               	movlw	136
  3692  001A96  6E01               	movwf	?_DescobrePosicao^0,c
  3693  001A98                     l42:
  3694  001A98  0012               	return		;funcret
  3695  001A9A                     __end_of_DescobrePosicao:
  3696                           	callstack 0
  3697                           
  3698                           	psect	rparam
  3699  0000                     
  3700                           	psect	idloc
  3701                           
  3702                           ;Config register IDLOC0 @ 0x200000
  3703                           ;	unspecified, using default values
  3704  200000                     	org	2097152
  3705  200000  FF                 	db	255
  3706                           
  3707                           ;Config register IDLOC1 @ 0x200001
  3708                           ;	unspecified, using default values
  3709  200001                     	org	2097153
  3710  200001  FF                 	db	255
  3711                           
  3712                           ;Config register IDLOC2 @ 0x200002
  3713                           ;	unspecified, using default values
  3714  200002                     	org	2097154
  3715  200002  FF                 	db	255
  3716                           
  3717                           ;Config register IDLOC3 @ 0x200003
  3718                           ;	unspecified, using default values
  3719  200003                     	org	2097155
  3720  200003  FF                 	db	255
  3721                           
  3722                           ;Config register IDLOC4 @ 0x200004
  3723                           ;	unspecified, using default values
  3724  200004                     	org	2097156
  3725  200004  FF                 	db	255
  3726                           
  3727                           ;Config register IDLOC5 @ 0x200005
  3728                           ;	unspecified, using default values
  3729  200005                     	org	2097157
  3730  200005  FF                 	db	255
  3731                           
  3732                           ;Config register IDLOC6 @ 0x200006
  3733                           ;	unspecified, using default values
  3734  200006                     	org	2097158
  3735  200006  FF                 	db	255
  3736                           
  3737                           ;Config register IDLOC7 @ 0x200007
  3738                           ;	unspecified, using default values
  3739  200007                     	org	2097159
  3740  200007  FF                 	db	255
  3741                           
  3742                           	psect	config
  3743                           
  3744                           ;Config register CONFIG1L @ 0x300000
  3745                           ;	PLL Prescaler Selection bits
  3746                           ;	PLLDIV = 1, No prescale (4 MHz oscillator input drives PLL directly)
  3747                           ;	System Clock Postscaler Selection bits
  3748                           ;	CPUDIV = OSC1_PLL2, [Primary Oscillator Src: /1][96 MHz PLL Src: /2]
  3749                           ;	USB Clock Selection bit (used in Full-Speed USB mode only; UCFG:FSEN = 1)
  3750                           ;	USBDIV = 1, USB clock source comes directly from the primary oscillator block with no 
      +                          postscale
  3751  300000                     	org	3145728
  3752  300000  00                 	db	0
  3753                           
  3754                           ;Config register CONFIG1H @ 0x300001
  3755                           ;	Oscillator Selection bits
  3756                           ;	FOSC = HS, HS oscillator (HS)
  3757                           ;	Fail-Safe Clock Monitor Enable bit
  3758                           ;	FCMEN = OFF, Fail-Safe Clock Monitor disabled
  3759                           ;	Internal/External Oscillator Switchover bit
  3760                           ;	IESO = OFF, Oscillator Switchover mode disabled
  3761  300001                     	org	3145729
  3762  300001  0C                 	db	12
  3763                           
  3764                           ;Config register CONFIG2L @ 0x300002
  3765                           ;	Power-up Timer Enable bit
  3766                           ;	PWRT = OFF, PWRT disabled
  3767                           ;	Brown-out Reset Enable bits
  3768                           ;	BOR = OFF, Brown-out Reset disabled in hardware and software
  3769                           ;	Brown-out Reset Voltage bits
  3770                           ;	BORV = 3, Minimum setting 2.05V
  3771                           ;	USB Voltage Regulator Enable bit
  3772                           ;	VREGEN = OFF, USB voltage regulator disabled
  3773  300002                     	org	3145730
  3774  300002  19                 	db	25
  3775                           
  3776                           ;Config register CONFIG2H @ 0x300003
  3777                           ;	Watchdog Timer Enable bit
  3778                           ;	WDT = OFF, WDT disabled (control is placed on the SWDTEN bit)
  3779                           ;	Watchdog Timer Postscale Select bits
  3780                           ;	WDTPS = 32768, 1:32768
  3781  300003                     	org	3145731
  3782  300003  1E                 	db	30
  3783                           
  3784                           ; Padding undefined space
  3785  300004                     	org	3145732
  3786  300004  FF                 	db	255
  3787                           
  3788                           ;Config register CONFIG3H @ 0x300005
  3789                           ;	CCP2 MUX bit
  3790                           ;	CCP2MX = OFF, CCP2 input/output is multiplexed with RB3
  3791                           ;	PORTB A/D Enable bit
  3792                           ;	PBADEN = OFF, PORTB<4:0> pins are configured as digital I/O on Reset
  3793                           ;	Low-Power Timer 1 Oscillator Enable bit
  3794                           ;	LPT1OSC = OFF, Timer1 configured for higher power operation
  3795                           ;	MCLR Pin Enable bit
  3796                           ;	MCLRE = OFF, RE3 input pin enabled; MCLR pin disabled
  3797  300005                     	org	3145733
  3798  300005  00                 	db	0
  3799                           
  3800                           ;Config register CONFIG4L @ 0x300006
  3801                           ;	Stack Full/Underflow Reset Enable bit
  3802                           ;	STVREN = OFF, Stack full/underflow will not cause Reset
  3803                           ;	Single-Supply ICSP Enable bit
  3804                           ;	LVP = OFF, Single-Supply ICSP disabled
  3805                           ;	Dedicated In-Circuit Debug/Programming Port (ICPORT) Enable bit
  3806                           ;	ICPRT = OFF, ICPORT disabled
  3807                           ;	Extended Instruction Set Enable bit
  3808                           ;	XINST = OFF, Instruction set extension and Indexed Addressing mode disabled (Legacy mo
      +                          de)
  3809                           ;	Background Debugger Enable bit
  3810                           ;	DEBUG = 0x1, unprogrammed default
  3811  300006                     	org	3145734
  3812  300006  80                 	db	128
  3813                           
  3814                           ; Padding undefined space
  3815  300007                     	org	3145735
  3816  300007  FF                 	db	255
  3817                           
  3818                           ;Config register CONFIG5L @ 0x300008
  3819                           ;	Code Protection bit
  3820                           ;	CP0 = OFF, Block 0 (000800-001FFFh) is not code-protected
  3821                           ;	Code Protection bit
  3822                           ;	CP1 = OFF, Block 1 (002000-003FFFh) is not code-protected
  3823                           ;	Code Protection bit
  3824                           ;	CP2 = OFF, Block 2 (004000-005FFFh) is not code-protected
  3825                           ;	Code Protection bit
  3826                           ;	CP3 = OFF, Block 3 (006000-007FFFh) is not code-protected
  3827  300008                     	org	3145736
  3828  300008  0F                 	db	15
  3829                           
  3830                           ;Config register CONFIG5H @ 0x300009
  3831                           ;	Boot Block Code Protection bit
  3832                           ;	CPB = OFF, Boot block (000000-0007FFh) is not code-protected
  3833                           ;	Data EEPROM Code Protection bit
  3834                           ;	CPD = OFF, Data EEPROM is not code-protected
  3835  300009                     	org	3145737
  3836  300009  C0                 	db	192
  3837                           
  3838                           ;Config register CONFIG6L @ 0x30000A
  3839                           ;	Write Protection bit
  3840                           ;	WRT0 = OFF, Block 0 (000800-001FFFh) is not write-protected
  3841                           ;	Write Protection bit
  3842                           ;	WRT1 = OFF, Block 1 (002000-003FFFh) is not write-protected
  3843                           ;	Write Protection bit
  3844                           ;	WRT2 = OFF, Block 2 (004000-005FFFh) is not write-protected
  3845                           ;	Write Protection bit
  3846                           ;	WRT3 = OFF, Block 3 (006000-007FFFh) is not write-protected
  3847  30000A                     	org	3145738
  3848  30000A  0F                 	db	15
  3849                           
  3850                           ;Config register CONFIG6H @ 0x30000B
  3851                           ;	Configuration Register Write Protection bit
  3852                           ;	WRTC = OFF, Configuration registers (300000-3000FFh) are not write-protected
  3853                           ;	Boot Block Write Protection bit
  3854                           ;	WRTB = OFF, Boot block (000000-0007FFh) is not write-protected
  3855                           ;	Data EEPROM Write Protection bit
  3856                           ;	WRTD = OFF, Data EEPROM is not write-protected
  3857  30000B                     	org	3145739
  3858  30000B  E0                 	db	224
  3859                           
  3860                           ;Config register CONFIG7L @ 0x30000C
  3861                           ;	Table Read Protection bit
  3862                           ;	EBTR0 = OFF, Block 0 (000800-001FFFh) is not protected from table reads executed in ot
      +                          her blocks
  3863                           ;	Table Read Protection bit
  3864                           ;	EBTR1 = OFF, Block 1 (002000-003FFFh) is not protected from table reads executed in ot
      +                          her blocks
  3865                           ;	Table Read Protection bit
  3866                           ;	EBTR2 = OFF, Block 2 (004000-005FFFh) is not protected from table reads executed in ot
      +                          her blocks
  3867                           ;	Table Read Protection bit
  3868                           ;	EBTR3 = OFF, Block 3 (006000-007FFFh) is not protected from table reads executed in ot
      +                          her blocks
  3869  30000C                     	org	3145740
  3870  30000C  0F                 	db	15
  3871                           
  3872                           ;Config register CONFIG7H @ 0x30000D
  3873                           ;	Boot Block Table Read Protection bit
  3874                           ;	EBTRB = OFF, Boot block (000000-0007FFh) is not protected from table reads executed in
      +                           other blocks
  3875  30000D                     	org	3145741
  3876  30000D  40                 	db	64
  3877                           tosu	equ	0xFFF
  3878                           tosh	equ	0xFFE
  3879                           tosl	equ	0xFFD
  3880                           stkptr	equ	0xFFC
  3881                           pclatu	equ	0xFFB
  3882                           pclath	equ	0xFFA
  3883                           pcl	equ	0xFF9
  3884                           tblptru	equ	0xFF8
  3885                           tblptrh	equ	0xFF7
  3886                           tblptrl	equ	0xFF6
  3887                           tablat	equ	0xFF5
  3888                           prodh	equ	0xFF4
  3889                           prodl	equ	0xFF3
  3890                           indf0	equ	0xFEF
  3891                           postinc0	equ	0xFEE
  3892                           postdec0	equ	0xFED
  3893                           preinc0	equ	0xFEC
  3894                           plusw0	equ	0xFEB
  3895                           fsr0h	equ	0xFEA
  3896                           fsr0l	equ	0xFE9
  3897                           wreg	equ	0xFE8
  3898                           indf1	equ	0xFE7
  3899                           postinc1	equ	0xFE6
  3900                           postdec1	equ	0xFE5
  3901                           preinc1	equ	0xFE4
  3902                           plusw1	equ	0xFE3
  3903                           fsr1h	equ	0xFE2
  3904                           fsr1l	equ	0xFE1
  3905                           bsr	equ	0xFE0
  3906                           indf2	equ	0xFDF
  3907                           postinc2	equ	0xFDE
  3908                           postdec2	equ	0xFDD
  3909                           preinc2	equ	0xFDC
  3910                           plusw2	equ	0xFDB
  3911                           fsr2h	equ	0xFDA
  3912                           fsr2l	equ	0xFD9
  3913                           status	equ	0xFD8

Data Sizes:
    Strings     40
    Constant    0
    Data        0
    BSS         0
    Persistent  0
    Stack       0

Auto Spaces:
    Space          Size  Autos    Used
    COMRAM           95     69      69
    BANK0           160      0       0
    BANK1           256      0       0
    BANK2           256      0       0
    BANK3           256      0       0
    BANK4           256      0       0
    BANK5           256      0       0
    BANK6           256      0       0
    BANK7           256      0       0

Pointer List with Targets:

    putsXLCD@buffer	PTR unsigned char  size(2) Largest target is 16
		 -> STR_5(CODE[16]), STR_4(CODE[8]), STR_3(CODE[16]), STR_2(CODE[8]), 
		 -> STR_1(CODE[8]), 


Critical Paths under _main in COMRAM

    _main->___fltol
    _putsXLCD->_WriteDataXLCD
    ___fltol->___flmul
    ___flmul->___xxtofl
    _OpenXLCD->_DelayPORXLCD
    _OpenXLCD->_DelayXLCD
    _OpenXLCD->_SetDDRamAddr
    _OpenXLCD->_WriteCmdXLCD
    _LeTecladoMatricial->_DescobrePosicao

Critical Paths under _main in BANK0

    None.

Critical Paths under _main in BANK1

    None.

Critical Paths under _main in BANK2

    None.

Critical Paths under _main in BANK3

    None.

Critical Paths under _main in BANK4

    None.

Critical Paths under _main in BANK5

    None.

Critical Paths under _main in BANK6

    None.

Critical Paths under _main in BANK7

    None.

Call Graph Tables:

 ---------------------------------------------------------------------------------
 (Depth) Function   	        Calls       Base Space   Used Autos Params    Refs
 ---------------------------------------------------------------------------------
 (0) _main                                                20    20      0    7095
                                             49 COMRAM    20    20      0
                 _LeTecladoMatricial
                           _OpenXLCD
                       _WriteCmdXLCD
                            ___flmul
                            ___fltol
                             ___wmul
                           ___xxtofl
                           _putsXLCD
 ---------------------------------------------------------------------------------
 (1) _putsXLCD                                             2     0      2     455
                                              1 COMRAM     2     0      2
                           _BusyXLCD
                      _WriteDataXLCD
 ---------------------------------------------------------------------------------
 (1) ___xxtofl                                            14    10      4     550
                                              0 COMRAM    14    10      4
 ---------------------------------------------------------------------------------
 (1) ___wmul                                               6     2      4     615
                                              0 COMRAM     6     2      4
 ---------------------------------------------------------------------------------
 (1) ___fltol                                             10     6      4     457
                                             39 COMRAM    10     6      4
                            ___flmul (ARG)
                           ___xxtofl (ARG)
 ---------------------------------------------------------------------------------
 (1) ___flmul                                             25    17      8    2048
                                             14 COMRAM    25    17      8
                           ___xxtofl (ARG)
 ---------------------------------------------------------------------------------
 (1) _OpenXLCD                                             1     1      0      75
                                              1 COMRAM     1     1      0
                           _BusyXLCD
                       _DelayPORXLCD
                          _DelayXLCD
                       _SetDDRamAddr
                       _WriteCmdXLCD
 ---------------------------------------------------------------------------------
 (2) _SetDDRamAddr                                         1     1      0      30
                                              0 COMRAM     1     1      0
                      _DelayFor18TCY
 ---------------------------------------------------------------------------------
 (2) _DelayXLCD                                            1     1      0       0
                                              0 COMRAM     1     1      0
 ---------------------------------------------------------------------------------
 (2) _DelayPORXLCD                                         1     1      0       0
                                              0 COMRAM     1     1      0
 ---------------------------------------------------------------------------------
 (2) _BusyXLCD                                             0     0      0       0
                      _DelayFor18TCY
 ---------------------------------------------------------------------------------
 (1) _LeTecladoMatricial                                   6     4      2    2211
                                              2 COMRAM     6     4      2
                    _DescobrePosicao
                       _WriteCmdXLCD
                      _WriteDataXLCD
 ---------------------------------------------------------------------------------
 (2) _WriteDataXLCD                                        1     1      0      30
                                              0 COMRAM     1     1      0
                      _DelayFor18TCY
 ---------------------------------------------------------------------------------
 (1) _WriteCmdXLCD                                         1     1      0      30
                                              0 COMRAM     1     1      0
                      _DelayFor18TCY
 ---------------------------------------------------------------------------------
 (3) _DelayFor18TCY                                        0     0      0       0
 ---------------------------------------------------------------------------------
 (2) _DescobrePosicao                                      2     0      2    1260
                                              0 COMRAM     2     0      2
 ---------------------------------------------------------------------------------
 Estimated maximum stack depth 3
 ---------------------------------------------------------------------------------

 Call Graph Graphs:

 _main (ROOT)
   _LeTecladoMatricial
     _DescobrePosicao
     _WriteCmdXLCD
       _DelayFor18TCY
     _WriteDataXLCD
       _DelayFor18TCY
   _OpenXLCD
     _BusyXLCD
       _DelayFor18TCY
     _DelayPORXLCD
     _DelayXLCD
     _SetDDRamAddr
       _DelayFor18TCY
     _WriteCmdXLCD
   _WriteCmdXLCD
   ___flmul
     ___xxtofl (ARG)
   ___fltol
     ___flmul (ARG)
     ___xxtofl (ARG)
   ___wmul
   ___xxtofl
   _putsXLCD
     _BusyXLCD
     _WriteDataXLCD

 Address spaces:
Name               Size   Autos  Total    Cost      Usage
BITCOMRAM           5F      0       0       0        0.0%
EEDATA             100      0       0       0        0.0%
NULL                 0      0       0       0        0.0%
CODE                 0      0       0       0        0.0%
COMRAM              5F     45      45       1       72.6%
STACK                0      0       0       2        0.0%
DATA                 0      0       0       3        0.0%
BITBANK0            A0      0       0       4        0.0%
BANK0               A0      0       0       5        0.0%
BITBANK1           100      0       0       6        0.0%
BANK1              100      0       0       7        0.0%
BITBANK2           100      0       0       8        0.0%
BANK2              100      0       0       9        0.0%
BITBANK3           100      0       0      10        0.0%
BANK3              100      0       0      11        0.0%
BITBANK4           100      0       0      12        0.0%
BANK4              100      0       0      13        0.0%
BITBANK5           100      0       0      14        0.0%
BANK5              100      0       0      15        0.0%
BITBANK6           100      0       0      16        0.0%
BANK6              100      0       0      17        0.0%
BITBANK7           100      0       0      18        0.0%
BANK7              100      0       0      19        0.0%
ABS                  0      0       0      20        0.0%
BIGRAM             7FF      0       0      21        0.0%
BITSFR               0      0       0     200        0.0%
SFR                  0      0       0     200        0.0%


Microchip Technology PIC18 Macro Assembler V2.32 build 20210201212658 
Symbol Table                                                                                   Tue Jun 18 17:30:21 2024

                         l42 1A98                           l50 08EC                           l51 0938  
                         l61 0C6A                           l53 0A04                           l62 0C94  
                         l54 0A50                           l63 0CBE                           l55 0A9C  
                         l47 0836                           l56 0ACA                           l48 08A0  
                         l57 0B4A                           l49 0D04                           l58 0B96  
                         l59 0BE2                           l83 10C8                           l84 10FA  
                         l86 111A                           l88 1138                           u30 197A  
                         u31 1976          ___wmul@multiplicand 0003                          l111 1AF8  
                        l114 1AE0                          l117 1AD0                          l141 1912  
                        l150 1990                          l151 19A2                          l161 1A5E  
                        l147 19E2                          l164 1A20                          l173 195C  
                        l185 1ABE                          l482 1824                          l803 156A  
                        l900 19F6                          l910 1A10                          l902 19F8  
                        l806 13FC                          l912 1A14                          l904 19FC  
                        l920 1AD2                          l816 152C                          l808 1474  
                        l840 15C2                          l809 1462                          l914 1A16  
                        l906 19FE                          l930 196C                          l922 1AC0  
                        l843 171E                          l916 1A1A                          l908 1A02  
                        l940 1988                          l932 197A                          l924 195E  
                        l950 1996                          l942 198A                          l934 197C  
                        l926 1962                          l854 16B6                          l847 165A  
                        l880 1A3A                          l872 1A24                          l952 199C  
                        l936 1980                          l928 1966                          l960 19A6  
                        l858 1AF0                          l890 1A54                          l882 1A3C  
                        l874 1A32                          l954 199E                          l938 1986  
                        l970 19C0                          l962 19B6                          l892 1A58  
                        l884 1A40                          l876 1A34                          l956 19A0  
                        l948 1992                          l980 19DC                          l972 19C4  
                        l964 19B8                          l886 1A4E                          l878 1A36  
                        l974 19D2                          l966 19BA                          l799 1206  
                        l888 1A52                          l896 19E6                          l976 19D6  
                        l968 19BE                          l898 19F4                          l978 19D8  
                        u210 1876                          u211 1872                          u220 188A  
                        u221 1886                          u230 18A4                          u231 18A0  
                        u240 18BE                          u241 18BA                          u250 18D8  
                        u251 18D4                          u260 18F2                          u261 18EE  
                        u270 190C                          u271 1908                          u800 08FA  
                        u801 08F6                          u810 0946                          u811 0942  
                        u900 0C4E                          u820 09C6                          u901 0C4A  
                        u821 09C2                          u910 0C78                          u830 0A12  
                        u911 0C74                          u831 0A0E                          u760 1A72  
                        u920 0CA2                          u840 0A5E                          u761 1A6E  
                        u921 0C9E                          u841 0A5A                          u770 1A90  
                        u930 0CCC                          u850 0AAA                          u771 1A8C  
                        u931 0CC8                          u851 0AA6                          u940 0D00  
                        u860 0B0C                          u780 0862                          u941 0CFC  
                        u861 0B08                          u781 085E                          u870 0B58  
                        u790 08AE                          u950 192C                          u871 0B54  
                        u791 08AA                          u951 1928                          u880 0BA4  
                        u960 195C                          u881 0BA0                          u961 1958  
                        u890 0BF0                          u970 115C                          u891 0BEC  
                        u971 1158                          u980 116E                          u981 116A  
                        u990 117E                          u991 117A        __size_of_WriteCmdXLCD 003E  
                        wreg 000FE8           _LeTecladoMatricial 082A                 ___flmul@aexp 0020  
               ___flmul@bexp 0021                 ___flmul@sign 001B                 ___flmul@temp 0026  
               ___flmul@prod 0022                  main@digito1 0034                  main@digito2 0036  
                main@digito3 0038                 ___fltol@exp1 0031                         l1200 1838  
                       l2000 12BC                         l1210 184A                         l1202 183A  
                       l2010 1312                         l2002 12CC                         l1220 1862  
                       l1212 184E                         l1204 183C                         l2020 13B6  
                       l2012 132E                         l2004 12D8                         l1230 18AA  
                       l1222 1876                         l1214 1854                         l1206 1840  
                       l2030 140C                         l2022 13C4                         l2014 133A  
                       l2006 12E8                         l2110 1804                         l1240 18F2  
                       l1232 18BE                         l1224 188A                         l1216 1858  
                       l1208 1846                         l2032 141A                         l2024 13E2  
                       l2016 1356                         l2008 1302                         l2112 1814  
                       l2104 17D8                         l2120 158C                         l2200 0D2A  
                       l1242 18F8                         l1234 18C4                         l1226 1890  
                       l1218 185C                         l2042 1484                         l2050 14CC  
                       l2034 141E                         l2026 13EC                         l2018 1380  
                       l2106 17E4                         l2130 1604                         l2122 15D2  
                       l2210 0D34                         l2202 0D2C                         l1244 190C  
                       l1236 18D8                         l1228 18A4                         l2060 1540  
                       l2052 14E6                         l2044 1490                         l2036 142C  
                       l2028 13FA                         l2108 17F4                         l2140 168C  
                       l2132 1610                         l2124 15E8                         l2116 156E  
                       l2300 1132                         l2220 0DA2                         l2212 0D72  
                       l2204 0D2E                         l1238 18DE                         l1190 1828  
                       l2062 154E                         l2054 14FA                         l2046 149E  
                       l2038 145A                         l2150 16CA                         l2142 1698  
                       l2134 1642                         l2118 157E                         l2230 0E3E  
                       l2222 0DB6                         l2214 0D7C                         l2206 0D30  
                       l1192 1830                         l2064 1550                         l2056 1514  
                       l2048 14C8                         l2080 1774                         l2072 1720  
                       l2152 16EE                         l2144 16A6                         l2136 1644  
                       l2128 15FC                         l2240 0E88                         l2224 0DD6  
                       l2216 0D82                         l2232 0E46                         l2208 0D32  
                       l1194 1832                         l2058 1530                         l2066 1556  
                       l2082 1776                         l2074 1736                         l2154 16FE  
                       l2146 16C4                         l2138 1650                         l2250 0F24  
                       l2242 0E9C                         l2234 0E5C                         l2226 0E2E  
                       l2218 0D8E                         l2170 0D0C                         l2162 0D06  
                       l1196 1834                         l2068 155A                         l2084 1786  
                       l2156 170C                         l2148 16C6                         l2252 0F42  
                       l2244 0EBC                         l2236 0E68                         l2260 0F7E  
                       l2228 0E36                         l2180 0D16                         l2172 0D0E  
                       l2164 0D06                         l1710 1A72                         l1198 1836  
                       l2094 17B0                         l2086 178A                         l2078 174A  
                       l2158 170E                         l2270 0FD4                         l2262 0F94  
                       l2254 0F4E                         l2246 0F14                         l2238 0E74  
                       l2190 0D20                         l2182 0D18                         l2174 0D10  
                       l2166 0D08                         l1800 0A76                         l1720 082A  
                       l2096 17BA                         l2088 1798                         l2280 107A  
                       l2272 0FF4                         l2264 0FA0                         l2256 0F5A  
                       l2248 0F1C                         l2192 0D22                         l2184 0D1A  
                       l2176 0D12                         l2168 0D0A                         l1714 1A7E  
                       l1810 0AC2                         l1802 0A7A                         l1730 087E  
                       l1722 083E                         l2098 17C4                         l2290 10CA  
                       l2282 1086                         l2274 104C                         l2266 0FAC  
                       l2258 0F76                         l2194 0D24                         l2186 0D1C  
                       l2178 0D14                         l1716 1A90                         l1708 1A60  
                       l1900 0CA2                         l1820 0AE2                         l1804 0A90  
                       l1740 08CA                         l1732 0894                         l1724 0854  
                       l2292 10F2                         l2284 1092                         l2276 1054  
                       l2268 0FC0                         l2196 0D26                         l2188 0D1E  
                       l1910 0CCC                         l1830 0B24                         l1822 0AE4  
                       l1750 0916                         l1742 08E0                         l1726 0862  
                       l2294 10FE                         l2286 10AE                         l2278 105C  
                       l2198 0D28                         l1840 0B70                         l1832 0B28  
                       l1824 0AE6                         l1808 0AAA                         l1760 0962  
                       l1752 092C                         l1736 08AE                         l1728 087A  
                       l1920 0CE8                         l2296 1114                         l2288 10B6  
                       l1850 0BBC                         l1842 0B74                         l1834 0B3E  
                       l1826 0AFE                         l1818 0AE0                         l1770 099C  
                       l1762 0978                         l1746 08FA                         l1738 08C6  
                       l1930 192C                         l2298 111C                         l1852 0BC0  
                       l1844 0B8A                         l1828 0B0C                         l1780 09DE  
                       l1772 099E                         l1756 0946                         l1748 0912  
                       l1932 193C                         l1870 0C22                         l1854 0BD6  
                       l1838 0B58                         l1790 0A2A                         l1782 09E2  
                       l1774 09A0                         l1758 095E                         l1766 0984  
                       l1950 116E                         l1942 1142                         l1934 1940  
                       l1926 1914                         l1880 0C4E                         l1872 0C24  
                       l1848 0BA4                         l1792 0A2E                         l1784 09F8  
                       l1776 09B8                         l1768 099A                         l1960 11AA  
                       l1952 117E                         l1944 114E                         l1936 1A9A  
                       l1928 1918                         l1890 0C78                         l1874 0C26  
                       l1858 0BF0                         l1794 0A44                         l1778 09C6  
                       l1970 11E0                         l1962 11B0                         l1954 118E  
                       l1946 115C                         l1938 1AB6                         l1876 0C28  
                       l1868 0C0C                         l1788 0A12                         l1972 11F0  
                       l1964 11BE                         l1956 1194                         l1948 115E  
                       l1878 0C40                         l1798 0A5E                         l1990 1272  
                       l1982 123A                         l1974 11F6                         l1966 11C0  
                       l1958 11A4                         l1992 128A                         l1984 1246  
                       l1976 1216                         l1968 11D0                         l1994 1296  
                       l1986 1250                         l1978 1226                         l1996 12A2  
                       l1988 1266                         l1998 12B0                         STR_1 0811  
                       STR_2 0819                         STR_3 0801                         STR_4 0821  
                       STR_5 0801                         u1000 11BE                         u1001 11BA  
                       u1010 11D0                         u1011 11CC                         u1100 1470  
                       u1020 11E0                         u1101 146C                         u1021 11DC  
                       u1110 1484                         u1030 1216                         u1111 1480  
                       u1031 1212                         u1120 149E                         u1040 1226  
                       u1200 17D4                         u1121 149A                         u1041 1222  
                       u1201 17D0                         u1130 14E6                         u1050 13A0  
                       u1210 17F4                         u1131 14E2                         u1211 17F0  
                       u1140 1514                         u1060 13FA                         u1220 1804  
                       u1300 16C4                         u1141 1510                         u1061 13F6  
                       u1221 1800                         u1301 16C0                         u1150 154E  
                       u1070 141A                         u1310 16FE                         u1230 157E  
                       u1151 154A                         u1071 1416                         u1055 1396  
                       u1311 16FA                         u1231 157A                         u1080 142C  
                       u1160 1736                         u1320 170C                         u1240 158C  
                       u1400 1132                         u1081 1428                         u1161 1732  
                       u1321 1708                         u1241 1588                         u1401 112E  
                       u1090 145A                         u1170 176A                         u1250 15E8  
                       u1330 0E58                         u1091 1456                         u1251 15E4  
                       u1331 0E54                         u1180 1798                         u1260 163E  
                       u1340 0F42                         u1181 1794                         u1261 163A  
                       u1341 0F3E                         u1190 17AC                         u1270 1688  
                       u1350 0F90                         u1191 17A8                         u1175 1760  
                       u1271 1684                         u1351 0F8C                         u1280 16A6  
                       u1360 107A                         u1281 16A2                         u1361 1076  
                       u1417 0F64                         u1290 16B6                         u1370 10C8  
                       u1507 098E                         u1291 16B2                         u1371 10C4  
                       u1427 109C                         u1380 10F2                         u1517 09AC  
                       u1437 1AC6                         u1381 10EE                         u1390 1114  
                       u1607 0C16                         u1527 09EC                         u1447 1AD8  
                       u1391 1110                         u1617 0C34                         u1537 0A38  
                       u1457 0848                         u1627 1AF2                         u1547 0A84  
                       u1467 0888                         u1557 0AD4                         u1477 08D4  
                       u1567 0AF2                         u1487 0920                         u1577 0B32  
                       u1497 096C                         u1587 0B7E                         u1597 0BCA  
        ?_LeTecladoMatricial 0003                         _main 0D06            ??_DescobrePosicao 0003  
     __size_of_WriteDataXLCD 003E                         prodh 000FF4                         prodl 000FF3  
                       start 0000                 ___param_bank 000000                 _WriteCmdXLCD 1A22  
       ??_LeTecladoMatricial 0005                ___fltol@sign1 0030                ?_SetDDRamAddr 0001  
                      ?_main 0001              __end_of___flmul 156C              __end_of___fltol 1826  
                      _PORTD 000F83                        _TRISD 000F95                        tablat 000FF5  
                      status 000FD8              __initialization 1AE2                 __end_of_main 1142  
           __end_of_BusyXLCD 19A4           __size_of_DelayXLCD 0012        __size_of_DelayPORXLCD 0010  
             ??_SetDDRamAddr 0001             __end_of_OpenXLCD 1914                       ??_main 0032  
              __activetblptr 000001   LeTecladoMatricial@contador 0003                _WriteDataXLCD 19E4  
                     _ADCON0 000FC2                       _ADCON1 000FC1                       _ADCON2 000FC0  
                     _ADRESH 000FC4                       _ADRESL 000FC3      DescobrePosicao@contador 0001  
           __end_of___xxtofl 1720                 _DelayPORXLCD 1AD2                       ___wmul 1A9A  
                  ??___flmul 0017                    ??___fltol 002C                       isa$std 000001  
             ?_WriteDataXLCD 0001                 __mediumconst 0000                       tblptrh 000FF7  
                     tblptrl 000FF6                       tblptru 000FF8             __end_of_putsXLCD 195E  
          __end_of_DelayXLCD 1AD2                 ___xxtofl@arg 000B                 ___xxtofl@exp 000A  
               ___xxtofl@val 0001                   __accesstop 0060      __end_of__initialization 1AE2  
              ___rparam_used 000001                   ___fltol@f1 0028               __pcstackCOMRAM 0001  
            _DescobrePosicao 1A60       __size_of_DelayFor18TCY 000A                    ?_BusyXLCD 0001  
            WriteCmdXLCD@cmd 0001         __end_of_SetDDRamAddr 19E4                    ?_OpenXLCD 0001  
          WriteDataXLCD@data 0001                      ?___wmul 0001              ??_WriteDataXLCD 0001  
                  ?___xxtofl 0001                   ??_BusyXLCD 0001                   ??_OpenXLCD 0002  
                    __Hparam 0000                      __Lparam 0000          LeTecladoMatricial@a 0007  
              _DelayFor18TCY 1AF0                      ___flmul 1142                      ___fltol 1720  
            __size_of___wmul 0026                    ?_putsXLCD 0002                 __psmallconst 0800  
__size_of_LeTecladoMatricial 04DC                      __pcinit 1AE2      __end_of_DescobrePosicao 1A9A  
                    __ramtop 0800                      __ptext0 0D06                      __ptext1 1914  
                    __ptext2 156C                      __ptext3 1A9A                      __ptext4 1720  
                    __ptext5 1142                      __ptext6 1826                      __ptext7 19A4  
                    __ptext8 1AC0                      __ptext9 1AD2                   ??___xxtofl 0005  
       end_of_initialization 1AE2               ?_DelayFor18TCY 0001                   ??_putsXLCD 0004  
                  _PORTBbits 000F81                    _PORTCbits 000F82                    _PORTDbits 000F83  
              ___xxtofl@sign 0009                    _TRISAbits 000F92                    _TRISBbits 000F93  
                  _TRISCbits 000F94                    _TRISDbits 000F95                    _TRISEbits 000F96  
      __size_of_SetDDRamAddr 0040          main@Valor_conversor 003A                  ___flmul@grs 001C  
                  _DelayXLCD 1AC0               __end_of___wmul 1AC0             ?_DescobrePosicao 0001  
               _SetDDRamAddr 19A4           SetDDRamAddr@DDaddr 0001          start_initialization 1AE2  
          __size_of_BusyXLCD 0046                   ?_DelayXLCD 0001              ??_DelayFor18TCY 0001  
          __size_of_OpenXLCD 00EE                     ??___wmul 0005                ?_WriteCmdXLCD 0001  
                  ___flmul@a 0013                    ___flmul@b 000F            __size_of___xxtofl 01B4  
             putsXLCD@buffer 0002               ??_WriteCmdXLCD 0001                     ?___flmul 000F  
                   ?___fltol 0028            __size_of_putsXLCD 004A        __end_of_WriteDataXLCD 1A22  
                __smallconst 0800               ___wmul@product 0005                     _LATEbits 000F8D  
                ??_DelayXLCD 0001                ?_DelayPORXLCD 0001              OpenXLCD@lcdtype 0002  
 __end_of_LeTecladoMatricial 0D06                   _ADCON0bits 000FC2            ___wmul@multiplier 0001  
           main@temperatura1 003C             main@temperatura2 0040             main@temperatura3 003E  
                   _BusyXLCD 195E               ??_DelayPORXLCD 0001                     _OpenXLCD 1826  
                   __Hrparam 0000                     __Lrparam 0000                 __Lsmallconst 0800  
           __size_of___flmul 042A             __size_of___fltol 0106                     ___xxtofl 156C  
                   __ptext10 195E                     __ptext11 082A                     __ptext12 19E4  
                   __ptext13 1A22                     __ptext14 1AF0                     __ptext15 1A60  
       __end_of_WriteCmdXLCD 1A60                __size_of_main 043C                     isa$xinst 000000  
                   _putsXLCD 1914                     main@temp 0042     __size_of_DescobrePosicao 003A  
      __end_of_DelayFor18TCY 1AFA         __end_of_DelayPORXLCD 1AE2  
